(dp0
cnumpy.core.multiarray
scalar
p1
(cnumpy
dtype
p2
(S'i8'
p3
I0
I1
tp4
Rp5
(I3
S'<'
p6
NNNI-1
I-1
I0
tp7
bS'\x00\xc0\x06\x00\x00\x00\x00\x00'
p8
tp9
Rp10
(dp11
S'away_team_goal_list'
p12
(lp13
S'Puncheon, Jason'
p14
asS'home_team_name'
p15
S'Sunderland'
p16
sS'home_team_id'
p17
g1
(g5
S'8\x00\x00\x00\x00\x00\x00\x00'
p18
tp19
Rp20
sS'away_team_name'
p21
S'Southampton'
p22
sS'team_id_goal_list'
p23
(lp24
I56
aI20
asS'away_team_id'
p25
g1
(g5
S'\x14\x00\x00\x00\x00\x00\x00\x00'
p26
tp27
Rp28
sS'home_team_goal_list'
p29
(lp30
S'Bardsley, Phil'
p31
assg1
(g5
S'\x01\xc0\x06\x00\x00\x00\x00\x00'
p32
tp33
Rp34
(dp35
g12
(lp36
S'Naismith, Steven'
p37
asg15
S'Chelsea'
p38
sg17
g1
(g5
S'\x08\x00\x00\x00\x00\x00\x00\x00'
p39
tp40
Rp41
sg21
S'Everton'
p42
sg23
(lp43
I8
aI11
aI8
asg25
g1
(g5
S'\x0b\x00\x00\x00\x00\x00\x00\x00'
p44
tp45
Rp46
sg29
(lp47
S'Mata, Juan'
p48
aS'Torres, Fernando'
p49
assg1
(g5
S'\x02\xc0\x06\x00\x00\x00\x00\x00'
p50
tp51
Rp52
(dp53
g12
(lp54
sg15
S'Liverpool'
p55
sg17
g1
(g5
S'\x0e\x00\x00\x00\x00\x00\x00\x00'
p56
tp57
Rp58
sg21
S'Queens Park Rangers'
p59
sg23
(lp60
I14
asg25
g1
(g5
S'4\x00\x00\x00\x00\x00\x00\x00'
p61
tp62
Rp63
sg29
(lp64
S'Coutinho, Philippe'
p65
assg1
(g5
S'\x03\xc0\x06\x00\x00\x00\x00\x00'
p66
tp67
Rp68
(dp69
g12
(lp70
S'Pilkington, Anthony'
p71
aS'Holt, Grant'
p72
aS'Howson, Jonathan'
p73
asg15
S'Manchester City'
p74
sg17
g1
(g5
S'+\x00\x00\x00\x00\x00\x00\x00'
p75
tp76
Rp77
sg21
S'Norwich City'
p78
sg23
(lp79
I45
aI43
aI45
aI43
aI45
asg25
g1
(g5
S'-\x00\x00\x00\x00\x00\x00\x00'
p80
tp81
Rp82
sg29
(lp83
S'Rodwell, Jack'
p84
ag84
assg1
(g5
S'\x04\xc0\x06\x00\x00\x00\x00\x00'
p85
tp86
Rp87
(dp88
g12
(lp89
S'Koscielny, Laurent'
p90
asg15
S'Newcastle United'
p91
sg17
g1
(g5
S'\x04\x00\x00\x00\x00\x00\x00\x00'
p92
tp93
Rp94
sg21
S'Arsenal'
p95
sg23
(lp96
I3
asg25
g1
(g5
S'\x03\x00\x00\x00\x00\x00\x00\x00'
p97
tp98
Rp99
sg29
(lp100
ssg1
(g5
S'\x05\xc0\x06\x00\x00\x00\x00\x00'
p101
tp102
Rp103
(dp104
g12
(lp105
S'Crouch, Peter'
p106
asg15
S'Southampton'
p107
sg17
g1
(g5
S'\x14\x00\x00\x00\x00\x00\x00\x00'
p108
tp109
Rp110
sg21
S'Stoke City'
p111
sg23
(lp112
I110
aI20
asg25
g1
(g5
S'n\x00\x00\x00\x00\x00\x00\x00'
p113
tp114
Rp115
sg29
(lp116
S'Lambert, Rickie'
p117
assg1
(g5
S'\x06\xc0\x06\x00\x00\x00\x00\x00'
p118
tp119
Rp120
(dp121
g12
(lp122
S'Kacaniklic, Alexander'
p123
aS'Berbatov, Dimitar'
p124
aS'Emanuelson, Urby'
p125
asg15
S'Swansea City'
p126
sg17
g1
(g5
S'P\x00\x00\x00\x00\x00\x00\x00'
p127
tp128
Rp129
sg21
S'Fulham'
p130
sg23
(lp131
I54
aI54
aI54
asg25
g1
(g5
S'6\x00\x00\x00\x00\x00\x00\x00'
p132
tp133
Rp134
sg29
(lp135
ssg1
(g5
S'\x07\xc0\x06\x00\x00\x00\x00\x00'
p136
tp137
Rp138
(dp139
g12
(lp140
sg15
S'Tottenham Hotspur'
p141
sg17
g1
(g5
S'\x06\x00\x00\x00\x00\x00\x00\x00'
p142
tp143
Rp144
sg21
S'Sunderland'
p145
sg23
(lp146
I6
asg25
g1
(g5
S'8\x00\x00\x00\x00\x00\x00\x00'
p147
tp148
Rp149
sg29
(lp150
S'Bale, Gareth'
p151
assg1
(g5
S'\x08\xc0\x06\x00\x00\x00\x00\x00'
p152
tp153
Rp154
(dp155
g12
(lp156
S'Kagawa, Shinji'
p157
aS'Buttner, Alexander'
p158
aS'van Persie, Robin'
p159
aS'Hernandez, Javier'
p160
asg15
S'West Bromwich Albion'
p161
sg17
g1
(g5
S'#\x00\x00\x00\x00\x00\x00\x00'
p162
tp163
Rp164
sg21
S'Manchester United'
p165
sg23
(lp166
I1
aI35
aI1
aI35
aI35
aI1
aI1
aI35
aI35
aI35
asg25
g1
(g5
S'\x01\x00\x00\x00\x00\x00\x00\x00'
p167
tp168
Rp169
sg29
(lp170
S'Olsson, Jonas'
p171
aS'Morrison, James'
p172
aS'Lukaku, Romelu'
p173
ag173
aS'Mulumbu, Youssuf'
p174
ag173
assg1
(g5
S'\t\xc0\x06\x00\x00\x00\x00\x00'
p175
tp176
Rp177
(dp178
g12
(lp179
S'McCleary, Garath'
p180
aS'Le Fondre, Adam'
p181
asg15
S'West Ham United'
p182
sg17
g1
(g5
S'\x15\x00\x00\x00\x00\x00\x00\x00'
p183
tp184
Rp185
sg21
S'Reading'
p186
sg23
(lp187
I21
aI21
aI108
aI108
aI21
aI21
asg25
g1
(g5
S'l\x00\x00\x00\x00\x00\x00\x00'
p188
tp189
Rp190
sg29
(lp191
S'Nolan, Kevin'
p192
aS'Vaz Te, Ricardo'
p193
ag192
ag192
assg1
(g5
S'\n\xc0\x06\x00\x00\x00\x00\x00'
p194
tp195
Rp196
(dp197
g12
(lp198
S'Bent, Darren'
p199
aS'Baker, Nathan'
p200
aS'Vlaar, Ron'
p201
asg15
S'Wigan Athletic'
p202
sg17
g1
(g5
S'o\x00\x00\x00\x00\x00\x00\x00'
p203
tp204
Rp205
sg21
S'Aston Villa'
p206
sg23
(lp207
I7
aI111
aI7
aI7
asg25
g1
(g5
S'\x07\x00\x00\x00\x00\x00\x00\x00'
p208
tp209
Rp210
sg29
(lp211
S'Boyce, Emmerson'
p212
assg1
(g5
S'\x8f\xbe\x06\x00\x00\x00\x00\x00'
p213
tp214
Rp215
(dp216
g12
(lp217
sg15
S'Arsenal'
p218
sg17
g1
(g5
S'\x03\x00\x00\x00\x00\x00\x00\x00'
p219
tp220
Rp221
sg21
S'Sunderland'
p222
sg23
(lp223
sg25
g1
(g5
S'8\x00\x00\x00\x00\x00\x00\x00'
p224
tp225
Rp226
sg29
(lp227
ssg1
(g5
S'\x90\xbe\x06\x00\x00\x00\x00\x00'
p228
tp229
Rp230
(dp231
g12
(lp232
sg15
S'Everton'
p233
sg17
g1
(g5
S'\x0b\x00\x00\x00\x00\x00\x00\x00'
p234
tp235
Rp236
sg21
S'Manchester United'
p237
sg23
(lp238
I11
asg25
g1
(g5
S'\x01\x00\x00\x00\x00\x00\x00\x00'
p239
tp240
Rp241
sg29
(lp242
S'Fellaini, Marouane'
p243
assg1
(g5
S'\x91\xbe\x06\x00\x00\x00\x00\x00'
p244
tp245
Rp246
(dp247
g12
(lp248
sg15
S'Fulham'
p249
sg17
g1
(g5
S'6\x00\x00\x00\x00\x00\x00\x00'
p250
tp251
Rp252
sg21
S'Norwich City'
p253
sg23
(lp254
I54
aI54
aI54
aI54
aI54
asg25
g1
(g5
S'-\x00\x00\x00\x00\x00\x00\x00'
p255
tp256
Rp257
sg29
(lp258
S'Duff, Damien'
p259
aS'Petric, Mladen'
p260
ag260
aS'Kacaniklic, Alexander'
p261
aS'Sidwell, Steve'
p262
assg1
(g5
S'\x92\xbe\x06\x00\x00\x00\x00\x00'
p263
tp264
Rp265
(dp266
g12
(lp267
S'Lambert, Rickie'
p268
aS'Davis, Steven'
p269
asg15
S'Manchester City'
p270
sg17
g1
(g5
S'+\x00\x00\x00\x00\x00\x00\x00'
p271
tp272
Rp273
sg21
S'Southampton'
p274
sg23
(lp275
I43
aI20
aI20
aI43
aI43
asg25
g1
(g5
S'\x14\x00\x00\x00\x00\x00\x00\x00'
p276
tp277
Rp278
sg29
(lp279
S'Tevez, Carlos'
p280
aS'Dzeko, Edin'
p281
aS'Nasri, Samir'
p282
assg1
(g5
S'\x93\xbe\x06\x00\x00\x00\x00\x00'
p283
tp284
Rp285
(dp286
g12
(lp287
S'Defoe, Jermain'
p288
asg15
S'Newcastle United'
p289
sg17
g1
(g5
S'\x04\x00\x00\x00\x00\x00\x00\x00'
p290
tp291
Rp292
sg21
S'Tottenham Hotspur'
p293
sg23
(lp294
I4
aI6
aI4
asg25
g1
(g5
S'\x06\x00\x00\x00\x00\x00\x00\x00'
p295
tp296
Rp297
sg29
(lp298
S'Ba, Demba'
p299
aS'Ben Arfa, Hatem'
p300
assg1
(g5
S'\x94\xbe\x06\x00\x00\x00\x00\x00'
p301
tp302
Rp303
(dp304
g12
(lp305
S'Perez Cuesta, Miguel'
p306
ag306
aS'Dyer, Nathan'
p307
ag307
aS'Sinclair, Scott'
p308
asg15
S'Queens Park Rangers'
p309
sg17
g1
(g5
S'4\x00\x00\x00\x00\x00\x00\x00'
p310
tp311
Rp312
sg21
S'Swansea City'
p313
sg23
(lp314
I80
aI80
aI80
aI80
aI80
asg25
g1
(g5
S'P\x00\x00\x00\x00\x00\x00\x00'
p315
tp316
Rp317
sg29
(lp318
ssg1
(g5
S'\x95\xbe\x06\x00\x00\x00\x00\x00'
p319
tp320
Rp321
(dp322
g12
(lp323
S'Kightly, Michael'
p324
asg15
S'Reading'
p325
sg17
g1
(g5
S'l\x00\x00\x00\x00\x00\x00\x00'
p326
tp327
Rp328
sg21
S'Stoke City'
p329
sg23
(lp330
I110
aI108
asg25
g1
(g5
S'n\x00\x00\x00\x00\x00\x00\x00'
p331
tp332
Rp333
sg29
(lp334
S'Le Fondre, Adam'
p335
assg1
(g5
S'\x96\xbe\x06\x00\x00\x00\x00\x00'
p336
tp337
Rp338
(dp339
g12
(lp340
sg15
S'West Bromwich Albion'
p341
sg17
g1
(g5
S'#\x00\x00\x00\x00\x00\x00\x00'
p342
tp343
Rp344
sg21
S'Liverpool'
p345
sg23
(lp346
I35
aI35
aI35
asg25
g1
(g5
S'\x0e\x00\x00\x00\x00\x00\x00\x00'
p347
tp348
Rp349
sg29
(lp350
S'Gera, Zoltan'
p351
aS'Odemwingie, Peter'
p352
aS'Lukaku, Romelu'
p353
assg1
(g5
S'\x97\xbe\x06\x00\x00\x00\x00\x00'
p354
tp355
Rp356
(dp357
g12
(lp358
sg15
S'West Ham United'
p359
sg17
g1
(g5
S'\x15\x00\x00\x00\x00\x00\x00\x00'
p360
tp361
Rp362
sg21
S'Aston Villa'
p363
sg23
(lp364
I21
asg25
g1
(g5
S'\x07\x00\x00\x00\x00\x00\x00\x00'
p365
tp366
Rp367
sg29
(lp368
S'Nolan, Kevin'
p369
assg1
(g5
S'\x98\xbe\x06\x00\x00\x00\x00\x00'
p370
tp371
Rp372
(dp373
g12
(lp374
S'Ivanovic, Branislav'
p375
aS'Lampard, Frank'
p376
asg15
S'Wigan Athletic'
p377
sg17
g1
(g5
S'o\x00\x00\x00\x00\x00\x00\x00'
p378
tp379
Rp380
sg21
S'Chelsea'
p381
sg23
(lp382
I8
aI8
asg25
g1
(g5
S'\x08\x00\x00\x00\x00\x00\x00\x00'
p383
tp384
Rp385
sg29
(lp386
ssg1
(g5
S'\x99\xbe\x06\x00\x00\x00\x00\x00'
p387
tp388
Rp389
(dp390
g12
(lp391
S'Pienaar, Steven'
p392
ag243
aS'Jelavic, Nikica'
p393
asg15
S'Aston Villa'
p394
sg17
g1
(g5
S'\x07\x00\x00\x00\x00\x00\x00\x00'
p395
tp396
Rp397
sg21
S'Everton'
p398
sg23
(lp399
I11
aI11
aI11
aI7
asg25
g1
(g5
S'\x0b\x00\x00\x00\x00\x00\x00\x00'
p400
tp401
Rp402
sg29
(lp403
S'El Ahmadi, Karim'
p404
assg1
(g5
S'\x9a\xbe\x06\x00\x00\x00\x00\x00'
p405
tp406
Rp407
(dp408
g12
(lp409
sg15
S'Chelsea'
p410
sg17
g1
(g5
S'\x08\x00\x00\x00\x00\x00\x00\x00'
p411
tp412
Rp413
sg21
S'Newcastle United'
p414
sg23
(lp415
I8
aI8
asg25
g1
(g5
S'\x04\x00\x00\x00\x00\x00\x00\x00'
p416
tp417
Rp418
sg29
(lp419
S'Hazard, Eden'
p420
aS'Torres, Fernando'
p421
assg1
(g5
S'\x9b\xbe\x06\x00\x00\x00\x00\x00'
p422
tp423
Rp424
(dp425
g12
(lp426
S'Toure, Gnegneri Yaya'
p427
ag280
asg15
S'Liverpool'
p428
sg17
g1
(g5
S'\x0e\x00\x00\x00\x00\x00\x00\x00'
p429
tp430
Rp431
sg21
S'Manchester City'
p432
sg23
(lp433
I14
aI43
aI14
aI43
asg25
g1
(g5
S'+\x00\x00\x00\x00\x00\x00\x00'
p434
tp435
Rp436
sg29
(lp437
S'Skrtel, Martin'
p438
aS'Suarez, Luis'
p439
assg1
(g5
S'\x9c\xbe\x06\x00\x00\x00\x00\x00'
p440
tp441
Rp442
(dp443
g12
(lp444
g259
asg15
S'Manchester United'
p445
sg17
g1
(g5
S'\x01\x00\x00\x00\x00\x00\x00\x00'
p446
tp447
Rp448
sg21
S'Fulham'
p449
sg23
(lp450
I54
aI1
aI1
aI1
aI1
asg25
g1
(g5
S'6\x00\x00\x00\x00\x00\x00\x00'
p451
tp452
Rp453
sg29
(lp454
S'van Persie, Robin'
p455
aS'Kagawa, Shinji'
p456
aS'da Silva, Rafael Pereira'
p457
aS'Vidic, Nemanja'
p458
assg1
(g5
S'\x9d\xbe\x06\x00\x00\x00\x00\x00'
p459
tp460
Rp461
(dp462
g12
(lp463
S'Zamora, Bobby'
p464
asg15
S'Norwich City'
p465
sg17
g1
(g5
S'-\x00\x00\x00\x00\x00\x00\x00'
p466
tp467
Rp468
sg21
S'Queens Park Rangers'
p469
sg23
(lp470
I45
aI52
asg25
g1
(g5
S'4\x00\x00\x00\x00\x00\x00\x00'
p471
tp472
Rp473
sg29
(lp474
S'Jackson, Simeon'
p475
assg1
(g5
S'\x9e\xbe\x06\x00\x00\x00\x00\x00'
p476
tp477
Rp478
(dp479
g12
(lp480
S'Di Santo, Franco'
p481
aS'Kone, Arouna'
p482
asg15
S'Southampton'
p483
sg17
g1
(g5
S'\x14\x00\x00\x00\x00\x00\x00\x00'
p484
tp485
Rp486
sg21
S'Wigan Athletic'
p487
sg23
(lp488
I111
aI111
asg25
g1
(g5
S'o\x00\x00\x00\x00\x00\x00\x00'
p489
tp490
Rp491
sg29
(lp492
ssg1
(g5
S'\x9f\xbe\x06\x00\x00\x00\x00\x00'
p493
tp494
Rp495
(dp496
g12
(lp497
sg15
S'Stoke City'
p498
sg17
g1
(g5
S'n\x00\x00\x00\x00\x00\x00\x00'
p499
tp500
Rp501
sg21
S'Arsenal'
p502
sg23
(lp503
sg25
g1
(g5
S'\x03\x00\x00\x00\x00\x00\x00\x00'
p504
tp505
Rp506
sg29
(lp507
ssg1
(g5
S'\xa0\xbe\x06\x00\x00\x00\x00\x00'
p508
tp509
Rp510
(dp511
g12
(lp512
sg15
S'Sunderland'
p513
sg17
g1
(g5
S'8\x00\x00\x00\x00\x00\x00\x00'
p514
tp515
Rp516
sg21
S'Reading'
p517
sg23
(lp518
I56
aI56
aI56
asg25
g1
(g5
S'l\x00\x00\x00\x00\x00\x00\x00'
p519
tp520
Rp521
sg29
(lp522
S'McClean, James'
p523
aS'Fletcher, Steven'
p524
aS'Sessegnon, Stephane'
p525
assg1
(g5
S'\xa1\xbe\x06\x00\x00\x00\x00\x00'
p526
tp527
Rp528
(dp529
g12
(lp530
sg15
S'Swansea City'
p531
sg17
g1
(g5
S'P\x00\x00\x00\x00\x00\x00\x00'
p532
tp533
Rp534
sg21
S'West Ham United'
p535
sg23
(lp536
I80
aI80
aI80
asg25
g1
(g5
S'\x15\x00\x00\x00\x00\x00\x00\x00'
p537
tp538
Rp539
sg29
(lp540
S'Rangel, Angel'
p541
ag306
aS'Graham, Danny'
p542
assg1
(g5
S'\xa2\xbe\x06\x00\x00\x00\x00\x00'
p543
tp544
Rp545
(dp546
g12
(lp547
S'Morrison, James'
p548
asg15
S'Tottenham Hotspur'
p549
sg17
g1
(g5
S'\x06\x00\x00\x00\x00\x00\x00\x00'
p550
tp551
Rp552
sg21
S'West Bromwich Albion'
p553
sg23
(lp554
I6
aI35
asg25
g1
(g5
S'#\x00\x00\x00\x00\x00\x00\x00'
p555
tp556
Rp557
sg29
(lp558
S'Assou-Ekotto, Benoit'
p559
assg1
(g5
S'\xa3\xbe\x06\x00\x00\x00\x00\x00'
p560
tp561
Rp562
(dp563
g12
(lp564
S'Pogrebnyak, Pavel'
p565
aS'Guthrie, Danny'
p566
asg15
S'Chelsea'
p567
sg17
g1
(g5
S'\x08\x00\x00\x00\x00\x00\x00\x00'
p568
tp569
Rp570
sg21
S'Reading'
p571
sg23
(lp572
I8
aI108
aI108
aI8
aI8
aI8
asg25
g1
(g5
S'l\x00\x00\x00\x00\x00\x00\x00'
p573
tp574
Rp575
sg29
(lp576
S'Lampard, Frank'
p577
aS'Cahill, Gary'
p578
aS'Torres, Fernando'
p579
aS'Ivanovic, Branislav'
p580
assg1
(g5
S'\xa4\xbe\x06\x00\x00\x00\x00\x00'
p581
tp582
Rp583
(dp584
g12
(lp585
S'Podolski, Lukas'
p586
aS'Cazorla, Santiago'
p587
asg15
S'Liverpool'
p588
sg17
g1
(g5
S'\x0e\x00\x00\x00\x00\x00\x00\x00'
p589
tp590
Rp591
sg21
S'Arsenal'
p592
sg23
(lp593
I3
aI3
asg25
g1
(g5
S'\x03\x00\x00\x00\x00\x00\x00\x00'
p594
tp595
Rp596
sg29
(lp597
ssg1
(g5
S'\xa5\xbe\x06\x00\x00\x00\x00\x00'
p598
tp599
Rp600
(dp601
g12
(lp602
S'Zamora, Bobby'
p603
asg15
S'Manchester City'
p604
sg17
g1
(g5
S'+\x00\x00\x00\x00\x00\x00\x00'
p605
tp606
Rp607
sg21
S'Queens Park Rangers'
p608
sg23
(lp609
I43
aI52
aI43
aI43
asg25
g1
(g5
S'4\x00\x00\x00\x00\x00\x00\x00'
p610
tp611
Rp612
sg29
(lp613
S'Toure, Gnegneri Yaya'
p614
aS'Dzeko, Edin'
p615
aS'Tevez, Carlos'
p616
assg1
(g5
S'\xa6\xbe\x06\x00\x00\x00\x00\x00'
p617
tp618
Rp619
(dp620
g12
(lp621
S'Clark, Ciaran'
p622
asg15
S'Newcastle United'
p623
sg17
g1
(g5
S'\x04\x00\x00\x00\x00\x00\x00\x00'
p624
tp625
Rp626
sg21
S'Aston Villa'
p627
sg23
(lp628
I7
aI4
asg25
g1
(g5
S'\x07\x00\x00\x00\x00\x00\x00\x00'
p629
tp630
Rp631
sg29
(lp632
S'Ben Arfa, Hatem'
p633
assg1
(g5
S'\xa7\xbe\x06\x00\x00\x00\x00\x00'
p634
tp635
Rp636
(dp637
g12
(lp638
S'van Persie, Robin'
p639
ag639
ag639
asg15
S'Southampton'
p640
sg17
g1
(g5
S'\x14\x00\x00\x00\x00\x00\x00\x00'
p641
tp642
Rp643
sg21
S'Manchester United'
p644
sg23
(lp645
I20
aI1
aI20
aI1
aI1
asg25
g1
(g5
S'\x01\x00\x00\x00\x00\x00\x00\x00'
p646
tp647
Rp648
sg29
(lp649
S'Lambert, Rickie'
p650
aS'Schneiderlin, Morgan'
p651
assg1
(g5
S'\xa8\xbe\x06\x00\x00\x00\x00\x00'
p652
tp653
Rp654
(dp655
g12
(lp656
S'Fletcher, Steven'
p657
ag657
asg15
S'Swansea City'
p658
sg17
g1
(g5
S'P\x00\x00\x00\x00\x00\x00\x00'
p659
tp660
Rp661
sg21
S'Sunderland'
p662
sg23
(lp663
I56
aI80
aI56
aI80
asg25
g1
(g5
S'8\x00\x00\x00\x00\x00\x00\x00'
p664
tp665
Rp666
sg29
(lp667
S'Routledge, Wayne'
p668
aS'Perez Cuesta, Miguel'
p669
assg1
(g5
S'\xa9\xbe\x06\x00\x00\x00\x00\x00'
p670
tp671
Rp672
(dp673
g12
(lp674
S'Snodgrass, Robert'
p675
asg15
S'Tottenham Hotspur'
p676
sg17
g1
(g5
S'\x06\x00\x00\x00\x00\x00\x00\x00'
p677
tp678
Rp679
sg21
S'Norwich City'
p680
sg23
(lp681
I6
aI45
asg25
g1
(g5
S'-\x00\x00\x00\x00\x00\x00\x00'
p682
tp683
Rp684
sg29
(lp685
S'Dembele, Mousa'
p686
assg1
(g5
S'\xaa\xbe\x06\x00\x00\x00\x00\x00'
p687
tp688
Rp689
(dp690
g12
(lp691
sg15
S'West Bromwich Albion'
p692
sg17
g1
(g5
S'#\x00\x00\x00\x00\x00\x00\x00'
p693
tp694
Rp695
sg21
S'Everton'
p696
sg23
(lp697
I35
aI35
asg25
g1
(g5
S'\x0b\x00\x00\x00\x00\x00\x00\x00'
p698
tp699
Rp700
sg29
(lp701
S'Long, Shane'
p702
aS'McAuley, Gareth'
p703
assg1
(g5
S'\xab\xbe\x06\x00\x00\x00\x00\x00'
p704
tp705
Rp706
(dp707
g12
(lp708
sg15
S'West Ham United'
p709
sg17
g1
(g5
S'\x15\x00\x00\x00\x00\x00\x00\x00'
p710
tp711
Rp712
sg21
S'Fulham'
p713
sg23
(lp714
I21
aI21
aI21
asg25
g1
(g5
S'6\x00\x00\x00\x00\x00\x00\x00'
p715
tp716
Rp717
sg29
(lp718
S'Nolan, Kevin'
p719
aS'Reid, Winston'
p720
aS'Taylor, Matthew'
p721
assg1
(g5
S'\xac\xbe\x06\x00\x00\x00\x00\x00'
p722
tp723
Rp724
(dp725
g12
(lp726
S'Walters, Jonathan'
p727
aS'Crouch, Peter'
p728
asg15
S'Wigan Athletic'
p729
sg17
g1
(g5
S'o\x00\x00\x00\x00\x00\x00\x00'
p730
tp731
Rp732
sg21
S'Stoke City'
p733
sg23
(lp734
I111
aI110
aI111
aI110
asg25
g1
(g5
S'n\x00\x00\x00\x00\x00\x00\x00'
p735
tp736
Rp737
sg29
(lp738
S'Maloney, Shaun'
p739
aS'Di Santo, Franco'
p740
assg1
(g5
S'\xad\xbe\x06\x00\x00\x00\x00\x00'
p741
tp742
Rp743
(dp744
g12
(lp745
S'Hooiveld, Jos'
p746
aS'Clyne, Nathaniel'
p747
aS'Fox, Daniel'
p748
asg15
S'Arsenal'
p749
sg17
g1
(g5
S'\x03\x00\x00\x00\x00\x00\x00\x00'
p750
tp751
Rp752
sg21
S'Southampton'
p753
sg23
(lp754
I20
aI3
aI3
aI20
aI20
aI3
aI3
asg25
g1
(g5
S'\x14\x00\x00\x00\x00\x00\x00\x00'
p755
tp756
Rp757
sg29
(lp758
g586
aS'Yao Kouassi, Gervais'
p759
ag759
aS'Walcott, Theo'
p760
assg1
(g5
S'\xae\xbe\x06\x00\x00\x00\x00\x00'
p761
tp762
Rp763
(dp764
g12
(lp765
sg15
S'Aston Villa'
p766
sg17
g1
(g5
S'\x07\x00\x00\x00\x00\x00\x00\x00'
p767
tp768
Rp769
sg21
S'Swansea City'
p770
sg23
(lp771
I7
aI7
asg25
g1
(g5
S'P\x00\x00\x00\x00\x00\x00\x00'
p772
tp773
Rp774
sg29
(lp775
S'Lowton, Matthew'
p776
aS'Benteke, Christian'
p777
assg1
(g5
S'\xaf\xbe\x06\x00\x00\x00\x00\x00'
p778
tp779
Rp780
(dp781
g12
(lp782
S'Ba, Demba'
p783
ag783
asg15
S'Everton'
p784
sg17
g1
(g5
S'\x0b\x00\x00\x00\x00\x00\x00\x00'
p785
tp786
Rp787
sg21
S'Newcastle United'
p788
sg23
(lp789
I11
aI4
aI11
aI4
asg25
g1
(g5
S'\x04\x00\x00\x00\x00\x00\x00\x00'
p790
tp791
Rp792
sg29
(lp793
S'Baines, Leighton'
p794
aS'Anichebe, Victor'
p795
assg1
(g5
S'\xb0\xbe\x06\x00\x00\x00\x00\x00'
p796
tp797
Rp798
(dp799
g12
(lp800
sg15
S'Fulham'
p801
sg17
g1
(g5
S'6\x00\x00\x00\x00\x00\x00\x00'
p802
tp803
Rp804
sg21
S'West Bromwich Albion'
p805
sg23
(lp806
I54
aI54
aI54
asg25
g1
(g5
S'#\x00\x00\x00\x00\x00\x00\x00'
p807
tp808
Rp809
sg29
(lp810
S'Berbatov, Dimitar'
p811
ag811
aS'Sidwell, Steve'
p812
assg1
(g5
S'\xb1\xbe\x06\x00\x00\x00\x00\x00'
p813
tp814
Rp815
(dp816
g12
(lp817
sg15
S'Manchester United'
p818
sg17
g1
(g5
S'\x01\x00\x00\x00\x00\x00\x00\x00'
p819
tp820
Rp821
sg21
S'Wigan Athletic'
p822
sg23
(lp823
I1
aI1
aI1
aI1
asg25
g1
(g5
S'o\x00\x00\x00\x00\x00\x00\x00'
p824
tp825
Rp826
sg29
(lp827
S'Scholes, Paul'
p828
aS'Hernandez, Javier'
p829
aS'Buttner, Alexander'
p830
aS'Powell, Nick'
p831
assg1
(g5
S'\xb2\xbe\x06\x00\x00\x00\x00\x00'
p832
tp833
Rp834
(dp835
g12
(lp836
sg15
S'Norwich City'
p837
sg17
g1
(g5
S'-\x00\x00\x00\x00\x00\x00\x00'
p838
tp839
Rp840
sg21
S'West Ham United'
p841
sg23
(lp842
sg25
g1
(g5
S'\x15\x00\x00\x00\x00\x00\x00\x00'
p843
tp844
Rp845
sg29
(lp846
ssg1
(g5
S'\xb3\xbe\x06\x00\x00\x00\x00\x00'
p847
tp848
Rp849
(dp850
g12
(lp851
sg15
S'Queens Park Rangers'
p852
sg17
g1
(g5
S'4\x00\x00\x00\x00\x00\x00\x00'
p853
tp854
Rp855
sg21
S'Chelsea'
p856
sg23
(lp857
sg25
g1
(g5
S'\x08\x00\x00\x00\x00\x00\x00\x00'
p858
tp859
Rp860
sg29
(lp861
ssg1
(g5
S'\xb4\xbe\x06\x00\x00\x00\x00\x00'
p862
tp863
Rp864
(dp865
g12
(lp866
S'Defoe, Jermain'
p867
aS'Bale, Gareth'
p868
ag867
asg15
S'Reading'
p869
sg17
g1
(g5
S'l\x00\x00\x00\x00\x00\x00\x00'
p870
tp871
Rp872
sg21
S'Tottenham Hotspur'
p873
sg23
(lp874
I6
aI6
aI6
aI108
asg25
g1
(g5
S'\x06\x00\x00\x00\x00\x00\x00\x00'
p875
tp876
Rp877
sg29
(lp878
S'Robson-Kanu, Hal'
p879
assg1
(g5
S'\xb5\xbe\x06\x00\x00\x00\x00\x00'
p880
tp881
Rp882
(dp883
g12
(lp884
S'Garcia Fernandez, Francisco Javier'
p885
asg15
S'Stoke City'
p886
sg17
g1
(g5
S'n\x00\x00\x00\x00\x00\x00\x00'
p887
tp888
Rp889
sg21
S'Manchester City'
p890
sg23
(lp891
I110
aI43
asg25
g1
(g5
S'+\x00\x00\x00\x00\x00\x00\x00'
p892
tp893
Rp894
sg29
(lp895
g728
assg1
(g5
S'\xb6\xbe\x06\x00\x00\x00\x00\x00'
p896
tp897
Rp898
(dp899
g12
(lp900
S'Suarez, Luis'
p901
asg15
S'Sunderland'
p902
sg17
g1
(g5
S'8\x00\x00\x00\x00\x00\x00\x00'
p903
tp904
Rp905
sg21
S'Liverpool'
p906
sg23
(lp907
I56
aI14
asg25
g1
(g5
S'\x0e\x00\x00\x00\x00\x00\x00\x00'
p908
tp909
Rp910
sg29
(lp911
S'Fletcher, Steven'
p912
assg1
(g5
S'\xb7\xbe\x06\x00\x00\x00\x00\x00'
p913
tp914
Rp915
(dp916
g12
(lp917
sg15
S'Chelsea'
p918
sg17
g1
(g5
S'\x08\x00\x00\x00\x00\x00\x00\x00'
p919
tp920
Rp921
sg21
S'Stoke City'
p922
sg23
(lp923
I8
asg25
g1
(g5
S'n\x00\x00\x00\x00\x00\x00\x00'
p924
tp925
Rp926
sg29
(lp927
S'Cole, Ashley'
p928
assg1
(g5
S'\xb8\xbe\x06\x00\x00\x00\x00\x00'
p929
tp930
Rp931
(dp932
g12
(lp933
S'da Silva, Rafael Pereira'
p934
aS'van Persie, Robin'
p935
asg15
S'Liverpool'
p936
sg17
g1
(g5
S'\x0e\x00\x00\x00\x00\x00\x00\x00'
p937
tp938
Rp939
sg21
S'Manchester United'
p940
sg23
(lp941
I14
aI1
aI1
asg25
g1
(g5
S'\x01\x00\x00\x00\x00\x00\x00\x00'
p942
tp943
Rp944
sg29
(lp945
S'Gerrard, Steven'
p946
assg1
(g5
S'\xb9\xbe\x06\x00\x00\x00\x00\x00'
p947
tp948
Rp949
(dp950
g12
(lp951
S'Koscielny, Laurent'
p952
asg15
S'Manchester City'
p953
sg17
g1
(g5
S'+\x00\x00\x00\x00\x00\x00\x00'
p954
tp955
Rp956
sg21
S'Arsenal'
p957
sg23
(lp958
I43
aI3
asg25
g1
(g5
S'\x03\x00\x00\x00\x00\x00\x00\x00'
p959
tp960
Rp961
sg29
(lp962
S'Lescott, Joleon'
p963
assg1
(g5
S'\xba\xbe\x06\x00\x00\x00\x00\x00'
p964
tp965
Rp966
(dp967
g12
(lp968
sg15
S'Newcastle United'
p969
sg17
g1
(g5
S'\x04\x00\x00\x00\x00\x00\x00\x00'
p970
tp971
Rp972
sg21
S'Norwich City'
p973
sg23
(lp974
I4
asg25
g1
(g5
S'-\x00\x00\x00\x00\x00\x00\x00'
p975
tp976
Rp977
sg29
(lp978
S'Ba, Demba'
p979
assg1
(g5
S'\xbb\xbe\x06\x00\x00\x00\x00\x00'
p980
tp981
Rp982
(dp983
g12
(lp984
S'Bent, Darren'
p985
asg15
S'Southampton'
p986
sg17
g1
(g5
S'\x14\x00\x00\x00\x00\x00\x00\x00'
p987
tp988
Rp989
sg21
S'Aston Villa'
p990
sg23
(lp991
I7
aI20
aI20
aI20
aI20
asg25
g1
(g5
S'\x07\x00\x00\x00\x00\x00\x00\x00'
p992
tp993
Rp994
sg29
(lp995
S'Lambert, Rickie'
p996
aS'Clyne, Nathaniel'
p997
aS'Puncheon, Jason'
p998
ag996
assg1
(g5
S'\xbc\xbe\x06\x00\x00\x00\x00\x00'
p999
tp1000
Rp1001
(dp1002
g12
(lp1003
S'Anichebe, Victor'
p1004
aS'Mirallas, Kevin'
p1005
aS'Fellaini, Marouane'
p1006
asg15
S'Swansea City'
p1007
sg17
g1
(g5
S'P\x00\x00\x00\x00\x00\x00\x00'
p1008
tp1009
Rp1010
sg21
S'Everton'
p1011
sg23
(lp1012
I11
aI11
aI11
asg25
g1
(g5
S'\x0b\x00\x00\x00\x00\x00\x00\x00'
p1013
tp1014
Rp1015
sg29
(lp1016
ssg1
(g5
S'\xbd\xbe\x06\x00\x00\x00\x00\x00'
p1017
tp1018
Rp1019
(dp1020
g12
(lp1021
S'Zamora, Bobby'
p1022
aS'Faurlin, Alejandro'
p1023
asg15
S'Tottenham Hotspur'
p1024
sg17
g1
(g5
S'\x06\x00\x00\x00\x00\x00\x00\x00'
p1025
tp1026
Rp1027
sg21
S'Queens Park Rangers'
p1028
sg23
(lp1029
I52
aI52
aI6
asg25
g1
(g5
S'4\x00\x00\x00\x00\x00\x00\x00'
p1030
tp1031
Rp1032
sg29
(lp1033
S'Defoe, Jermain'
p1034
assg1
(g5
S'\xbe\xbe\x06\x00\x00\x00\x00\x00'
p1035
tp1036
Rp1037
(dp1038
g12
(lp1039
sg15
S'West Bromwich Albion'
p1040
sg17
g1
(g5
S'#\x00\x00\x00\x00\x00\x00\x00'
p1041
tp1042
Rp1043
sg21
S'Reading'
p1044
sg23
(lp1045
I35
asg25
g1
(g5
S'l\x00\x00\x00\x00\x00\x00\x00'
p1046
tp1047
Rp1048
sg29
(lp1049
S'Lukaku, Romelu'
p1050
assg1
(g5
S'\xbf\xbe\x06\x00\x00\x00\x00\x00'
p1051
tp1052
Rp1053
(dp1054
g12
(lp1055
g912
asg15
S'West Ham United'
p1056
sg17
g1
(g5
S'\x15\x00\x00\x00\x00\x00\x00\x00'
p1057
tp1058
Rp1059
sg21
S'Sunderland'
p1060
sg23
(lp1061
I56
aI21
asg25
g1
(g5
S'8\x00\x00\x00\x00\x00\x00\x00'
p1062
tp1063
Rp1064
sg29
(lp1065
S'Nolan, Kevin'
p1066
assg1
(g5
S'\xc0\xbe\x06\x00\x00\x00\x00\x00'
p1067
tp1068
Rp1069
(dp1070
g12
(lp1071
S'Rodallega, Hugo'
p1072
aS'Duff, Damien'
p1073
asg15
S'Wigan Athletic'
p1074
sg17
g1
(g5
S'o\x00\x00\x00\x00\x00\x00\x00'
p1075
tp1076
Rp1077
sg21
S'Fulham'
p1078
sg23
(lp1079
I54
aI54
aI111
asg25
g1
(g5
S'6\x00\x00\x00\x00\x00\x00\x00'
p1080
tp1081
Rp1082
sg29
(lp1083
S'Kone, Arouna'
p1084
assg1
(g5
S'\xc1\xbe\x06\x00\x00\x00\x00\x00'
p1085
tp1086
Rp1087
(dp1088
g12
(lp1089
S'Torres, Fernando'
p1090
aS'Mata, Juan'
p1091
asg15
S'Arsenal'
p1092
sg17
g1
(g5
S'\x03\x00\x00\x00\x00\x00\x00\x00'
p1093
tp1094
Rp1095
sg21
S'Chelsea'
p1096
sg23
(lp1097
I8
aI3
aI8
asg25
g1
(g5
S'\x08\x00\x00\x00\x00\x00\x00\x00'
p1098
tp1099
Rp1100
sg29
(lp1101
S'Yao Kouassi, Gervais'
p1102
assg1
(g5
S'\xc2\xbe\x06\x00\x00\x00\x00\x00'
p1103
tp1104
Rp1105
(dp1106
g12
(lp1107
S'Long, Shane'
p1108
asg15
S'Aston Villa'
p1109
sg17
g1
(g5
S'\x07\x00\x00\x00\x00\x00\x00\x00'
p1110
tp1111
Rp1112
sg21
S'West Bromwich Albion'
p1113
sg23
(lp1114
I35
aI7
asg25
g1
(g5
S'#\x00\x00\x00\x00\x00\x00\x00'
p1115
tp1116
Rp1117
sg29
(lp1118
g985
assg1
(g5
S'\xc3\xbe\x06\x00\x00\x00\x00\x00'
p1119
tp1120
Rp1121
(dp1122
g12
(lp1123
S'Ramirez, Gaston'
p1124
asg15
S'Everton'
p1125
sg17
g1
(g5
S'\x0b\x00\x00\x00\x00\x00\x00\x00'
p1126
tp1127
Rp1128
sg21
S'Southampton'
p1129
sg23
(lp1130
I20
aI11
aI11
aI11
asg25
g1
(g5
S'\x14\x00\x00\x00\x00\x00\x00\x00'
p1131
tp1132
Rp1133
sg29
(lp1134
S'Osman, Leon'
p1135
aS'Jelavic, Nikica'
p1136
ag1136
assg1
(g5
S'\xc4\xbe\x06\x00\x00\x00\x00\x00'
p1137
tp1138
Rp1139
(dp1140
g12
(lp1141
S'Aguero, Sergio'
p1142
aS'Dzeko, Edin'
p1143
asg15
S'Fulham'
p1144
sg17
g1
(g5
S'6\x00\x00\x00\x00\x00\x00\x00'
p1145
tp1146
Rp1147
sg21
S'Manchester City'
p1148
sg23
(lp1149
I54
aI43
aI43
asg25
g1
(g5
S'+\x00\x00\x00\x00\x00\x00\x00'
p1150
tp1151
Rp1152
sg29
(lp1153
S'Petric, Mladen'
p1154
assg1
(g5
S'\xc5\xbe\x06\x00\x00\x00\x00\x00'
p1155
tp1156
Rp1157
(dp1158
g12
(lp1159
S'Bale, Gareth'
p1160
aS'Dempsey, Clint'
p1161
asg15
S'Manchester United'
p1162
sg17
g1
(g5
S'\x01\x00\x00\x00\x00\x00\x00\x00'
p1163
tp1164
Rp1165
sg21
S'Tottenham Hotspur'
p1166
sg23
(lp1167
I1
aI6
aI1
aI6
aI1
asg25
g1
(g5
S'\x06\x00\x00\x00\x00\x00\x00\x00'
p1168
tp1169
Rp1170
sg29
(lp1171
S'Evans, Jonny'
p1172
aS'Almeida da Cunha, Luis'
p1173
aS'Kagawa, Shinji'
p1174
assg1
(g5
S'\xc6\xbe\x06\x00\x00\x00\x00\x00'
p1175
tp1176
Rp1177
(dp1178
g12
(lp1179
g901
ag901
aS'Sahin, Nuri'
p1180
ag901
asg15
S'Norwich City'
p1181
sg17
g1
(g5
S'-\x00\x00\x00\x00\x00\x00\x00'
p1182
tp1183
Rp1184
sg21
g906
sg23
(lp1185
I14
aI14
aI14
aI14
aI45
aI45
aI45
asg25
g1
(g5
S'\x0e\x00\x00\x00\x00\x00\x00\x00'
p1186
tp1187
Rp1188
sg29
(lp1189
S'Morison, Steve'
p1190
aS'Barnett, Leon'
p1191
aS'Holt, Grant'
p1192
assg1
(g5
S'\xc7\xbe\x06\x00\x00\x00\x00\x00'
p1193
tp1194
Rp1195
(dp1196
g12
(lp1197
S'Jarvis, Matthew'
p1198
aS'Vaz Te, Ricardo'
p1199
asg15
S'Queens Park Rangers'
p1200
sg17
g1
(g5
S'4\x00\x00\x00\x00\x00\x00\x00'
p1201
tp1202
Rp1203
sg21
S'West Ham United'
p1204
sg23
(lp1205
I21
aI21
aI52
asg25
g1
(g5
S'\x15\x00\x00\x00\x00\x00\x00\x00'
p1206
tp1207
Rp1208
sg29
(lp1209
S'Taarabt, Adel'
p1210
assg1
(g5
S'\xc8\xbe\x06\x00\x00\x00\x00\x00'
p1211
tp1212
Rp1213
(dp1214
g12
(lp1215
S'Ba, Demba'
p1216
ag1216
asg15
S'Reading'
p1217
sg17
g1
(g5
S'l\x00\x00\x00\x00\x00\x00\x00'
p1218
tp1219
Rp1220
sg21
S'Newcastle United'
p1221
sg23
(lp1222
I108
aI4
aI108
aI4
asg25
g1
(g5
S'\x04\x00\x00\x00\x00\x00\x00\x00'
p1223
tp1224
Rp1225
sg29
(lp1226
S'Kebe, Jimmy'
p1227
aS'Hunt, Noel'
p1228
assg1
(g5
S'\xc9\xbe\x06\x00\x00\x00\x00\x00'
p1229
tp1230
Rp1231
(dp1232
g12
(lp1233
sg15
S'Stoke City'
p1234
sg17
g1
(g5
S'n\x00\x00\x00\x00\x00\x00\x00'
p1235
tp1236
Rp1237
sg21
S'Swansea City'
p1238
sg23
(lp1239
I110
aI110
asg25
g1
(g5
S'P\x00\x00\x00\x00\x00\x00\x00'
p1240
tp1241
Rp1242
sg29
(lp1243
S'Crouch, Peter'
p1244
ag1244
assg1
(g5
S'\xca\xbe\x06\x00\x00\x00\x00\x00'
p1245
tp1246
Rp1247
(dp1248
g12
(lp1249
sg15
S'Sunderland'
p1250
sg17
g1
(g5
S'8\x00\x00\x00\x00\x00\x00\x00'
p1251
tp1252
Rp1253
sg21
S'Wigan Athletic'
p1254
sg23
(lp1255
I56
asg25
g1
(g5
S'o\x00\x00\x00\x00\x00\x00\x00'
p1256
tp1257
Rp1258
sg29
(lp1259
S'Fletcher, Steven'
p1260
assg1
(g5
S'\xcb\xbe\x06\x00\x00\x00\x00\x00'
p1261
tp1262
Rp1263
(dp1264
g12
(lp1265
S'Holt, Grant'
p1266
asg15
S'Chelsea'
p1267
sg17
g1
(g5
S'\x08\x00\x00\x00\x00\x00\x00\x00'
p1268
tp1269
Rp1270
sg21
S'Norwich City'
p1271
sg23
(lp1272
I45
aI8
aI8
aI8
aI8
asg25
g1
(g5
S'-\x00\x00\x00\x00\x00\x00\x00'
p1273
tp1274
Rp1275
sg29
(lp1276
S'Torres, Fernando'
p1277
aS'Lampard, Frank'
p1278
aS'Hazard, Eden'
p1279
aS'Ivanovic, Branislav'
p1280
assg1
(g5
S'\xcc\xbe\x06\x00\x00\x00\x00\x00'
p1281
tp1282
Rp1283
(dp1284
g12
(lp1285
sg15
S'Liverpool'
p1286
sg17
g1
(g5
S'\x0e\x00\x00\x00\x00\x00\x00\x00'
p1287
tp1288
Rp1289
sg21
S'Stoke City'
p1290
sg23
(lp1291
sg25
g1
(g5
S'n\x00\x00\x00\x00\x00\x00\x00'
p1292
tp1293
Rp1294
sg29
(lp1295
ssg1
(g5
S'\xcd\xbe\x06\x00\x00\x00\x00\x00'
p1296
tp1297
Rp1298
(dp1299
g12
(lp1300
sg15
S'Manchester City'
p1301
sg17
g1
(g5
S'+\x00\x00\x00\x00\x00\x00\x00'
p1302
tp1303
Rp1304
sg21
S'Sunderland'
p1305
sg23
(lp1306
I43
aI43
aI43
asg25
g1
(g5
S'8\x00\x00\x00\x00\x00\x00\x00'
p1307
tp1308
Rp1309
sg29
(lp1310
S'Kolarov, Aleksandar'
p1311
aS'Aguero, Sergio'
p1312
aS'Milner, James'
p1313
assg1
(g5
S'\xce\xbe\x06\x00\x00\x00\x00\x00'
p1314
tp1315
Rp1316
(dp1317
g12
(lp1318
S'Evans, Jonny'
p1319
aS'Evra, Patrice'
p1320
aS'Cleverley, Tom'
p1321
asg15
S'Newcastle United'
p1322
sg17
g1
(g5
S'\x04\x00\x00\x00\x00\x00\x00\x00'
p1323
tp1324
Rp1325
sg21
S'Manchester United'
p1326
sg23
(lp1327
I1
aI1
aI1
asg25
g1
(g5
S'\x01\x00\x00\x00\x00\x00\x00\x00'
p1328
tp1329
Rp1330
sg29
(lp1331
ssg1
(g5
S'\xcf\xbe\x06\x00\x00\x00\x00\x00'
p1332
tp1333
Rp1334
(dp1335
g12
(lp1336
S'Richardson, Kieran'
p1337
asg15
S'Southampton'
p1338
sg17
g1
(g5
S'\x14\x00\x00\x00\x00\x00\x00\x00'
p1339
tp1340
Rp1341
sg21
S'Fulham'
p1342
sg23
(lp1343
I20
aI20
aI54
aI20
asg25
g1
(g5
S'6\x00\x00\x00\x00\x00\x00\x00'
p1344
tp1345
Rp1346
sg29
(lp1347
S'Fonte, Jose'
p1348
aS'Hooiveld, Jos'
p1349
ag1348
assg1
(g5
S'\xd0\xbe\x06\x00\x00\x00\x00\x00'
p1350
tp1351
Rp1352
(dp1353
g12
(lp1354
S'Pogrebnyak, Pavel'
p1355
ag1228
asg15
S'Swansea City'
p1356
sg17
g1
(g5
S'P\x00\x00\x00\x00\x00\x00\x00'
p1357
tp1358
Rp1359
sg21
S'Reading'
p1360
sg23
(lp1361
I108
aI108
aI80
aI80
asg25
g1
(g5
S'l\x00\x00\x00\x00\x00\x00\x00'
p1362
tp1363
Rp1364
sg29
(lp1365
S'Perez Cuesta, Miguel'
p1366
aS'Routledge, Wayne'
p1367
assg1
(g5
S'\xd1\xbe\x06\x00\x00\x00\x00\x00'
p1368
tp1369
Rp1370
(dp1371
g12
(lp1372
sg15
S'Tottenham Hotspur'
p1373
sg17
g1
(g5
S'\x06\x00\x00\x00\x00\x00\x00\x00'
p1374
tp1375
Rp1376
sg21
S'Aston Villa'
p1377
sg23
(lp1378
I6
aI6
asg25
g1
(g5
S'\x07\x00\x00\x00\x00\x00\x00\x00'
p1379
tp1380
Rp1381
sg29
(lp1382
S'Caulker, Steven'
p1383
aS'Lennon, Aaron'
p1384
assg1
(g5
S'\xd2\xbe\x06\x00\x00\x00\x00\x00'
p1385
tp1386
Rp1387
(dp1388
g12
(lp1389
S'Taarabt, Adel'
p1390
aS'Granero, Esteban'
p1391
asg15
S'West Bromwich Albion'
p1392
sg17
g1
(g5
S'#\x00\x00\x00\x00\x00\x00\x00'
p1393
tp1394
Rp1395
sg21
S'Queens Park Rangers'
p1396
sg23
(lp1397
I35
aI35
aI52
aI35
aI52
asg25
g1
(g5
S'4\x00\x00\x00\x00\x00\x00\x00'
p1398
tp1399
Rp1400
sg29
(lp1401
S'Morrison, James'
p1402
aS'Gera, Zoltan'
p1403
aS'Mulumbu, Youssuf'
p1404
assg1
(g5
S'\xd3\xbe\x06\x00\x00\x00\x00\x00'
p1405
tp1406
Rp1407
(dp1408
g12
(lp1409
S'Giroud, Olivier'
p1410
aS'Walcott, Theo'
p1411
aS'Cazorla, Santiago'
p1412
asg15
S'West Ham United'
p1413
sg17
g1
(g5
S'\x15\x00\x00\x00\x00\x00\x00\x00'
p1414
tp1415
Rp1416
sg21
S'Arsenal'
p1417
sg23
(lp1418
I21
aI3
aI3
aI3
asg25
g1
(g5
S'\x03\x00\x00\x00\x00\x00\x00\x00'
p1419
tp1420
Rp1421
sg29
(lp1422
S'Diame, Mohamed'
p1423
assg1
(g5
S'\xd4\xbe\x06\x00\x00\x00\x00\x00'
p1424
tp1425
Rp1426
(dp1427
g12
(lp1428
S'Jelavic, Nikica'
p1429
aS'Baines, Leighton'
p1430
asg15
S'Wigan Athletic'
p1431
sg17
g1
(g5
S'o\x00\x00\x00\x00\x00\x00\x00'
p1432
tp1433
Rp1434
sg21
S'Everton'
p1435
sg23
(lp1436
I111
aI11
aI111
aI11
asg25
g1
(g5
S'\x0b\x00\x00\x00\x00\x00\x00\x00'
p1437
tp1438
Rp1439
sg29
(lp1440
S'Kone, Arouna'
p1441
aS'Di Santo, Franco'
p1442
assg1
(g5
S'\xd5\xbe\x06\x00\x00\x00\x00\x00'
p1443
tp1444
Rp1445
(dp1446
g12
(lp1447
sg15
S'Fulham'
p1448
sg17
g1
(g5
S'6\x00\x00\x00\x00\x00\x00\x00'
p1449
tp1450
Rp1451
sg21
g1377
sg23
(lp1452
I54
asg25
g1
(g5
S'\x07\x00\x00\x00\x00\x00\x00\x00'
p1453
tp1454
Rp1455
sg29
(lp1456
S'Baird, Christopher'
p1457
assg1
(g5
S'\xd6\xbe\x06\x00\x00\x00\x00\x00'
p1458
tp1459
Rp1460
(dp1461
g12
(lp1462
sg15
g1286
sg17
g1
(g5
S'\x0e\x00\x00\x00\x00\x00\x00\x00'
p1463
tp1464
Rp1465
sg21
g1360
sg23
(lp1466
I14
asg25
g1
(g5
S'l\x00\x00\x00\x00\x00\x00\x00'
p1467
tp1468
Rp1469
sg29
(lp1470
S'Sterling, Raheem'
p1471
assg1
(g5
S'\xd7\xbe\x06\x00\x00\x00\x00\x00'
p1472
tp1473
Rp1474
(dp1475
g12
(lp1476
S'Kightly, Michael'
p1477
asg15
S'Manchester United'
p1478
sg17
g1
(g5
S'\x01\x00\x00\x00\x00\x00\x00\x00'
p1479
tp1480
Rp1481
sg21
g1290
sg23
(lp1482
I1
aI1
aI1
aI1
aI110
aI1
asg25
g1
(g5
S'n\x00\x00\x00\x00\x00\x00\x00'
p1483
tp1484
Rp1485
sg29
(lp1486
S'Rooney, Wayne'
p1487
ag1487
aS'van Persie, Robin'
p1488
aS'Welbeck, Danny'
p1489
ag1487
assg1
(g5
S'\xd8\xbe\x06\x00\x00\x00\x00\x00'
p1490
tp1491
Rp1492
(dp1493
g12
(lp1494
sg15
S'Norwich City'
p1495
sg17
g1
(g5
S'-\x00\x00\x00\x00\x00\x00\x00'
p1496
tp1497
Rp1498
sg21
g1417
sg23
(lp1499
I45
asg25
g1
(g5
S'\x03\x00\x00\x00\x00\x00\x00\x00'
p1500
tp1501
Rp1502
sg29
(lp1503
g1266
assg1
(g5
S'\xd9\xbe\x06\x00\x00\x00\x00\x00'
p1504
tp1505
Rp1506
(dp1507
g12
(lp1508
g1430
asg15
S'Queens Park Rangers'
p1509
sg17
g1
(g5
S'4\x00\x00\x00\x00\x00\x00\x00'
p1510
tp1511
Rp1512
sg21
g1435
sg23
(lp1513
I11
aI52
asg25
g1
(g5
S'\x0b\x00\x00\x00\x00\x00\x00\x00'
p1514
tp1515
Rp1516
sg29
(lp1517
S'Cesar, Julio'
p1518
assg1
(g5
S'\xda\xbe\x06\x00\x00\x00\x00\x00'
p1519
tp1520
Rp1521
(dp1522
g12
(lp1523
S'Cabaye, Yohan'
p1524
ag1216
asg15
g1250
sg17
g1
(g5
S'8\x00\x00\x00\x00\x00\x00\x00'
p1525
tp1526
Rp1527
sg21
S'Newcastle United'
p1528
sg23
(lp1529
I4
aI4
asg25
g1
(g5
S'\x04\x00\x00\x00\x00\x00\x00\x00'
p1530
tp1531
Rp1532
sg29
(lp1533
ssg1
(g5
S'\xdb\xbe\x06\x00\x00\x00\x00\x00'
p1534
tp1535
Rp1536
(dp1537
g12
(lp1538
S'Boyce, Emmerson'
p1539
asg15
g1356
sg17
g1
(g5
S'P\x00\x00\x00\x00\x00\x00\x00'
p1540
tp1541
Rp1542
sg21
g1254
sg23
(lp1543
I80
aI80
aI111
asg25
g1
(g5
S'o\x00\x00\x00\x00\x00\x00\x00'
p1544
tp1545
Rp1546
sg29
(lp1547
S'Hernandez, Pablo'
p1548
ag1366
assg1
(g5
S'\xdc\xbe\x06\x00\x00\x00\x00\x00'
p1549
tp1550
Rp1551
(dp1552
g12
(lp1553
S'Cahill, Gary'
p1554
aS'Mata, Juan'
p1555
ag1555
aS'Sturridge, Daniel'
p1556
asg15
S'Tottenham Hotspur'
p1557
sg17
g1
(g5
S'\x06\x00\x00\x00\x00\x00\x00\x00'
p1558
tp1559
Rp1560
sg21
S'Chelsea'
p1561
sg23
(lp1562
I8
aI6
aI6
aI8
aI8
aI8
asg25
g1
(g5
S'\x08\x00\x00\x00\x00\x00\x00\x00'
p1563
tp1564
Rp1565
sg29
(lp1566
S'Gallas, William'
p1567
aS'Defoe, Jermain'
p1568
assg1
(g5
S'\xdd\xbe\x06\x00\x00\x00\x00\x00'
p1569
tp1570
Rp1571
(dp1572
g12
(lp1573
S'Dzeko, Edin'
p1574
ag1574
asg15
S'West Bromwich Albion'
p1575
sg17
g1
(g5
S'#\x00\x00\x00\x00\x00\x00\x00'
p1576
tp1577
Rp1578
sg21
S'Manchester City'
p1579
sg23
(lp1580
I35
aI43
aI43
asg25
g1
(g5
S'+\x00\x00\x00\x00\x00\x00\x00'
p1581
tp1582
Rp1583
sg29
(lp1584
S'Long, Shane'
p1585
assg1
(g5
S'\xde\xbe\x06\x00\x00\x00\x00\x00'
p1586
tp1587
Rp1588
(dp1589
g12
(lp1590
S'Lallana, Adam'
p1591
asg15
S'West Ham United'
p1592
sg17
g1
(g5
S'\x15\x00\x00\x00\x00\x00\x00\x00'
p1593
tp1594
Rp1595
sg21
S'Southampton'
p1596
sg23
(lp1597
I21
aI21
aI20
aI21
aI21
asg25
g1
(g5
S'\x14\x00\x00\x00\x00\x00\x00\x00'
p1598
tp1599
Rp1600
sg29
(lp1601
S'Noble, Mark'
p1602
aS'Nolan, Kevin'
p1603
ag1602
aS'Maiga, Modibo'
p1604
assg1
(g5
S'\xdf\xbe\x06\x00\x00\x00\x00\x00'
p1605
tp1606
Rp1607
(dp1608
g12
(lp1609
sg15
S'Arsenal'
p1610
sg17
g1
(g5
S'\x03\x00\x00\x00\x00\x00\x00\x00'
p1611
tp1612
Rp1613
sg21
S'Queens Park Rangers'
p1614
sg23
(lp1615
I3
asg25
g1
(g5
S'4\x00\x00\x00\x00\x00\x00\x00'
p1616
tp1617
Rp1618
sg29
(lp1619
S'Arteta, Mikel'
p1620
assg1
(g5
S'\xe0\xbe\x06\x00\x00\x00\x00\x00'
p1621
tp1622
Rp1623
(dp1624
g12
(lp1625
S'Turner, Michael'
p1626
asg15
S'Aston Villa'
p1627
sg17
g1
(g5
S'\x07\x00\x00\x00\x00\x00\x00\x00'
p1628
tp1629
Rp1630
sg21
S'Norwich City'
p1631
sg23
(lp1632
I7
aI45
asg25
g1
(g5
S'-\x00\x00\x00\x00\x00\x00\x00'
p1633
tp1634
Rp1635
sg29
(lp1636
S'Benteke, Christian'
p1637
assg1
(g5
S'\xe1\xbe\x06\x00\x00\x00\x00\x00'
p1638
tp1639
Rp1640
(dp1641
g12
(lp1642
S'van Persie, Robin'
p1643
aS'Hernandez, Javier'
p1644
asg15
S'Chelsea'
p1645
sg17
g1
(g5
S'\x08\x00\x00\x00\x00\x00\x00\x00'
p1646
tp1647
Rp1648
sg21
S'Manchester United'
p1649
sg23
(lp1650
I8
aI1
aI8
aI8
aI1
asg25
g1
(g5
S'\x01\x00\x00\x00\x00\x00\x00\x00'
p1651
tp1652
Rp1653
sg29
(lp1654
S'Luiz Moreira Marinho, David'
p1655
ag1555
aS'Santos do Nascimento, Ramires'
p1656
assg1
(g5
S'\xe2\xbe\x06\x00\x00\x00\x00\x00'
p1657
tp1658
Rp1659
(dp1660
g12
(lp1661
S'Suarez, Luis'
p1662
asg15
S'Everton'
p1663
sg17
g1
(g5
S'\x0b\x00\x00\x00\x00\x00\x00\x00'
p1664
tp1665
Rp1666
sg21
S'Liverpool'
p1667
sg23
(lp1668
I11
aI14
aI11
aI11
asg25
g1
(g5
S'\x0e\x00\x00\x00\x00\x00\x00\x00'
p1669
tp1670
Rp1671
sg29
(lp1672
S'Baines, Leighton'
p1673
aS'Osman, Leon'
p1674
aS'Naismith, Steven'
p1675
assg1
(g5
S'\xe3\xbe\x06\x00\x00\x00\x00\x00'
p1676
tp1677
Rp1678
(dp1679
g12
(lp1680
sg15
S'Manchester City'
p1681
sg17
g1
(g5
S'+\x00\x00\x00\x00\x00\x00\x00'
p1682
tp1683
Rp1684
sg21
S'Swansea City'
p1685
sg23
(lp1686
I43
asg25
g1
(g5
S'P\x00\x00\x00\x00\x00\x00\x00'
p1687
tp1688
Rp1689
sg29
(lp1690
S'Tevez, Carlos'
p1691
assg1
(g5
S'\xe4\xbe\x06\x00\x00\x00\x00\x00'
p1692
tp1693
Rp1694
(dp1695
g12
(lp1696
S'Lukaku, Romelu'
p1697
asg15
S'Newcastle United'
p1698
sg17
g1
(g5
S'\x04\x00\x00\x00\x00\x00\x00\x00'
p1699
tp1700
Rp1701
sg21
S'West Bromwich Albion'
p1702
sg23
(lp1703
I4
aI35
aI4
asg25
g1
(g5
S'#\x00\x00\x00\x00\x00\x00\x00'
p1704
tp1705
Rp1706
sg29
(lp1707
S'Ba, Demba'
p1708
aS'Cisse, Papiss Demba'
p1709
assg1
(g5
S'\xe5\xbe\x06\x00\x00\x00\x00\x00'
p1710
tp1711
Rp1712
(dp1713
g12
(lp1714
S'Ruiz, Bryan'
p1715
aS'Baird, Christopher'
p1716
aS'Berbatov, Dimitar'
p1717
asg15
S'Reading'
p1718
sg17
g1
(g5
S'l\x00\x00\x00\x00\x00\x00\x00'
p1719
tp1720
Rp1721
sg21
S'Fulham'
p1722
sg23
(lp1723
I108
aI54
aI54
aI108
aI54
aI108
asg25
g1
(g5
S'6\x00\x00\x00\x00\x00\x00\x00'
p1724
tp1725
Rp1726
sg29
(lp1727
S'Leigertwood, Mikele'
p1728
aS'McCleary, Garath'
p1729
aS'Robson-Kanu, Hal'
p1730
assg1
(g5
S'\xe6\xbe\x06\x00\x00\x00\x00\x00'
p1731
tp1732
Rp1733
(dp1734
g12
(lp1735
S'Bale, Gareth'
p1736
aS'Dempsey, Clint'
p1737
asg15
S'Southampton'
p1738
sg17
g1
(g5
S'\x14\x00\x00\x00\x00\x00\x00\x00'
p1739
tp1740
Rp1741
sg21
S'Tottenham Hotspur'
p1742
sg23
(lp1743
I6
aI6
aI20
asg25
g1
(g5
S'\x06\x00\x00\x00\x00\x00\x00\x00'
p1744
tp1745
Rp1746
sg29
(lp1747
S'Rodriguez, Jay'
p1748
assg1
(g5
S'\xe7\xbe\x06\x00\x00\x00\x00\x00'
p1749
tp1750
Rp1751
(dp1752
g12
(lp1753
sg15
S'Stoke City'
p1754
sg17
g1
(g5
S'n\x00\x00\x00\x00\x00\x00\x00'
p1755
tp1756
Rp1757
sg21
S'Sunderland'
p1758
sg23
(lp1759
sg25
g1
(g5
S'8\x00\x00\x00\x00\x00\x00\x00'
p1760
tp1761
Rp1762
sg29
(lp1763
ssg1
(g5
S'\xe8\xbe\x06\x00\x00\x00\x00\x00'
p1764
tp1765
Rp1766
(dp1767
g12
(lp1768
S'Tomkins, James'
p1769
asg15
S'Wigan Athletic'
p1770
sg17
g1
(g5
S'o\x00\x00\x00\x00\x00\x00\x00'
p1771
tp1772
Rp1773
sg21
S'West Ham United'
p1774
sg23
(lp1775
I111
aI111
aI21
asg25
g1
(g5
S'\x15\x00\x00\x00\x00\x00\x00\x00'
p1776
tp1777
Rp1778
sg29
(lp1779
S'Ramis, Ivan'
p1780
aS'McArthur, James'
p1781
assg1
(g5
S'\xe9\xbe\x06\x00\x00\x00\x00\x00'
p1782
tp1783
Rp1784
(dp1785
g12
(lp1786
S'Fellaini, Marouane'
p1787
ag1787
asg15
S'Fulham'
p1788
sg17
g1
(g5
S'6\x00\x00\x00\x00\x00\x00\x00'
p1789
tp1790
Rp1791
sg21
S'Everton'
p1792
sg23
(lp1793
I54
aI11
aI11
aI54
asg25
g1
(g5
S'\x0b\x00\x00\x00\x00\x00\x00\x00'
p1794
tp1795
Rp1796
sg29
(lp1797
g1715
aS'Sidwell, Steve'
p1798
assg1
(g5
S'\xea\xbe\x06\x00\x00\x00\x00\x00'
p1799
tp1800
Rp1801
(dp1802
g12
(lp1803
S'Cabaye, Yohan'
p1804
asg15
S'Liverpool'
p1805
sg17
g1
(g5
S'\x0e\x00\x00\x00\x00\x00\x00\x00'
p1806
tp1807
Rp1808
sg21
S'Newcastle United'
p1809
sg23
(lp1810
I4
aI14
asg25
g1
(g5
S'\x04\x00\x00\x00\x00\x00\x00\x00'
p1811
tp1812
Rp1813
sg29
(lp1814
g1662
assg1
(g5
S'\xeb\xbe\x06\x00\x00\x00\x00\x00'
p1815
tp1816
Rp1817
(dp1818
g12
(lp1819
S'Cazorla, Santiago'
p1820
asg15
S'Manchester United'
p1821
sg17
g1
(g5
S'\x01\x00\x00\x00\x00\x00\x00\x00'
p1822
tp1823
Rp1824
sg21
S'Arsenal'
p1825
sg23
(lp1826
I1
aI1
aI3
asg25
g1
(g5
S'\x03\x00\x00\x00\x00\x00\x00\x00'
p1827
tp1828
Rp1829
sg29
(lp1830
g1643
aS'Evra, Patrice'
p1831
assg1
(g5
S'\xec\xbe\x06\x00\x00\x00\x00\x00'
p1832
tp1833
Rp1834
(dp1835
g12
(lp1836
sg15
S'Norwich City'
p1837
sg17
g1
(g5
S'-\x00\x00\x00\x00\x00\x00\x00'
p1838
tp1839
Rp1840
sg21
S'Stoke City'
p1841
sg23
(lp1842
I45
asg25
g1
(g5
S'n\x00\x00\x00\x00\x00\x00\x00'
p1843
tp1844
Rp1845
sg29
(lp1846
S'Johnson, Bradley'
p1847
assg1
(g5
S'\xed\xbe\x06\x00\x00\x00\x00\x00'
p1848
tp1849
Rp1850
(dp1851
g12
(lp1852
S'Gorkss, Kaspars'
p1853
asg15
S'Queens Park Rangers'
p1854
sg17
g1
(g5
S'4\x00\x00\x00\x00\x00\x00\x00'
p1855
tp1856
Rp1857
sg21
S'Reading'
p1858
sg23
(lp1859
I108
aI52
asg25
g1
(g5
S'l\x00\x00\x00\x00\x00\x00\x00'
p1860
tp1861
Rp1862
sg29
(lp1863
S'Cisse, Djibril'
p1864
assg1
(g5
S'\xee\xbe\x06\x00\x00\x00\x00\x00'
p1865
tp1866
Rp1867
(dp1868
g12
(lp1869
S'Agbonlahor, Gabriel'
p1870
asg15
S'Sunderland'
p1871
sg17
g1
(g5
S'8\x00\x00\x00\x00\x00\x00\x00'
p1872
tp1873
Rp1874
sg21
S'Aston Villa'
p1875
sg23
(lp1876
I7
asg25
g1
(g5
S'\x07\x00\x00\x00\x00\x00\x00\x00'
p1877
tp1878
Rp1879
sg29
(lp1880
ssg1
(g5
S'\xef\xbe\x06\x00\x00\x00\x00\x00'
p1881
tp1882
Rp1883
(dp1884
g12
(lp1885
S'Moses, Victor'
p1886
asg15
S'Swansea City'
p1887
sg17
g1
(g5
S'P\x00\x00\x00\x00\x00\x00\x00'
p1888
tp1889
Rp1890
sg21
g1561
sg23
(lp1891
I8
aI80
asg25
g1
(g5
S'\x08\x00\x00\x00\x00\x00\x00\x00'
p1892
tp1893
Rp1894
sg29
(lp1895
S'Hernandez, Pablo'
p1896
assg1
(g5
S'\xf0\xbe\x06\x00\x00\x00\x00\x00'
p1897
tp1898
Rp1899
(dp1900
g12
(lp1901
S'Watson, Ben'
p1902
asg15
S'Tottenham Hotspur'
p1903
sg17
g1
(g5
S'\x06\x00\x00\x00\x00\x00\x00\x00'
p1904
tp1905
Rp1906
sg21
S'Wigan Athletic'
p1907
sg23
(lp1908
I111
asg25
g1
(g5
S'o\x00\x00\x00\x00\x00\x00\x00'
p1909
tp1910
Rp1911
sg29
(lp1912
ssg1
(g5
S'\xf1\xbe\x06\x00\x00\x00\x00\x00'
p1913
tp1914
Rp1915
(dp1916
g12
(lp1917
sg15
S'West Bromwich Albion'
p1918
sg17
g1
(g5
S'#\x00\x00\x00\x00\x00\x00\x00'
p1919
tp1920
Rp1921
sg21
S'Southampton'
p1922
sg23
(lp1923
I35
aI35
asg25
g1
(g5
S'\x14\x00\x00\x00\x00\x00\x00\x00'
p1924
tp1925
Rp1926
sg29
(lp1927
S'Odemwingie, Peter'
p1928
ag1928
assg1
(g5
S'\xf2\xbe\x06\x00\x00\x00\x00\x00'
p1929
tp1930
Rp1931
(dp1932
g12
(lp1933
sg15
S'West Ham United'
p1934
sg17
g1
(g5
S'\x15\x00\x00\x00\x00\x00\x00\x00'
p1935
tp1936
Rp1937
sg21
S'Manchester City'
p1938
sg23
(lp1939
sg25
g1
(g5
S'+\x00\x00\x00\x00\x00\x00\x00'
p1940
tp1941
Rp1942
sg29
(lp1943
ssg1
(g5
S'\xf3\xbe\x06\x00\x00\x00\x00\x00'
p1944
tp1945
Rp1946
(dp1947
g12
(lp1948
S'Berbatov, Dimitar'
p1949
aS'Kacaniklic, Alexander'
p1950
ag1949
asg15
S'Arsenal'
p1951
sg17
g1
(g5
S'\x03\x00\x00\x00\x00\x00\x00\x00'
p1952
tp1953
Rp1954
sg21
S'Fulham'
p1955
sg23
(lp1956
I3
aI3
aI54
aI54
aI54
aI3
asg25
g1
(g5
S'6\x00\x00\x00\x00\x00\x00\x00'
p1957
tp1958
Rp1959
sg29
(lp1960
S'Giroud, Olivier'
p1961
aS'Podolski, Lukas'
p1962
ag1961
assg1
(g5
S'\xf4\xbe\x06\x00\x00\x00\x00\x00'
p1963
tp1964
Rp1965
(dp1966
g12
(lp1967
S'Hernandez, Javier'
p1968
ag1968
asg15
S'Aston Villa'
p1969
sg17
g1
(g5
S'\x07\x00\x00\x00\x00\x00\x00\x00'
p1970
tp1971
Rp1972
sg21
S'Manchester United'
p1973
sg23
(lp1974
I7
aI7
aI1
aI7
aI1
asg25
g1
(g5
S'\x01\x00\x00\x00\x00\x00\x00\x00'
p1975
tp1976
Rp1977
sg29
(lp1978
S'Weimann, Andreas'
p1979
ag1979
aS'Vlaar, Ron'
p1980
assg1
(g5
S'\xf5\xbe\x06\x00\x00\x00\x00\x00'
p1981
tp1982
Rp1983
(dp1984
g12
(lp1985
S'Suarez, Luis'
p1986
asg15
S'Chelsea'
p1987
sg17
g1
(g5
S'\x08\x00\x00\x00\x00\x00\x00\x00'
p1988
tp1989
Rp1990
sg21
S'Liverpool'
p1991
sg23
(lp1992
I8
aI14
asg25
g1
(g5
S'\x0e\x00\x00\x00\x00\x00\x00\x00'
p1993
tp1994
Rp1995
sg29
(lp1996
S'Terry, John'
p1997
assg1
(g5
S'\xf6\xbe\x06\x00\x00\x00\x00\x00'
p1998
tp1999
Rp2000
(dp2001
g12
(lp2002
S'Johnson, Adam'
p2003
asg15
S'Everton'
p2004
sg17
g1
(g5
S'\x0b\x00\x00\x00\x00\x00\x00\x00'
p2005
tp2006
Rp2007
sg21
S'Sunderland'
p2008
sg23
(lp2009
I56
aI11
aI11
asg25
g1
(g5
S'8\x00\x00\x00\x00\x00\x00\x00'
p2010
tp2011
Rp2012
sg29
(lp2013
S'Fellaini, Marouane'
p2014
aS'Jelavic, Nikica'
p2015
assg1
(g5
S'\xf7\xbe\x06\x00\x00\x00\x00\x00'
p2016
tp2017
Rp2018
(dp2019
g12
(lp2020
S'Caulker, Steven'
p2021
asg15
S'Manchester City'
p2022
sg17
g1
(g5
S'+\x00\x00\x00\x00\x00\x00\x00'
p2023
tp2024
Rp2025
sg21
S'Tottenham Hotspur'
p2026
sg23
(lp2027
I6
aI43
aI43
asg25
g1
(g5
S'\x06\x00\x00\x00\x00\x00\x00\x00'
p2028
tp2029
Rp2030
sg29
(lp2031
S'Aguero, Sergio'
p2032
aS'Dzeko, Edin'
p2033
assg1
(g5
S'\xf8\xbe\x06\x00\x00\x00\x00\x00'
p2034
tp2035
Rp2036
(dp2037
g12
(lp2038
S'Nolan, Kevin'
p2039
asg15
S'Newcastle United'
p2040
sg17
g1
(g5
S'\x04\x00\x00\x00\x00\x00\x00\x00'
p2041
tp2042
Rp2043
sg21
S'West Ham United'
p2044
sg23
(lp2045
I21
asg25
g1
(g5
S'\x15\x00\x00\x00\x00\x00\x00\x00'
p2046
tp2047
Rp2048
sg29
(lp2049
ssg1
(g5
S'\xf9\xbe\x06\x00\x00\x00\x00\x00'
p2050
tp2051
Rp2052
(dp2053
g12
(lp2054
sg15
S'Reading'
p2055
sg17
g1
(g5
S'l\x00\x00\x00\x00\x00\x00\x00'
p2056
tp2057
Rp2058
sg21
S'Norwich City'
p2059
sg23
(lp2060
sg25
g1
(g5
S'-\x00\x00\x00\x00\x00\x00\x00'
p2061
tp2062
Rp2063
sg29
(lp2064
ssg1
(g5
S'\xfa\xbe\x06\x00\x00\x00\x00\x00'
p2065
tp2066
Rp2067
(dp2068
g12
(lp2069
S'Dyer, Nathan'
p2070
asg15
S'Southampton'
p2071
sg17
g1
(g5
S'\x14\x00\x00\x00\x00\x00\x00\x00'
p2072
tp2073
Rp2074
sg21
S'Swansea City'
p2075
sg23
(lp2076
I20
aI80
asg25
g1
(g5
S'P\x00\x00\x00\x00\x00\x00\x00'
p2077
tp2078
Rp2079
sg29
(lp2080
S'Schneiderlin, Morgan'
p2081
assg1
(g5
S'\xfb\xbe\x06\x00\x00\x00\x00\x00'
p2082
tp2083
Rp2084
(dp2085
g12
(lp2086
sg15
S'Stoke City'
p2087
sg17
g1
(g5
S'n\x00\x00\x00\x00\x00\x00\x00'
p2088
tp2089
Rp2090
sg21
S'Queens Park Rangers'
p2091
sg23
(lp2092
I110
asg25
g1
(g5
S'4\x00\x00\x00\x00\x00\x00\x00'
p2093
tp2094
Rp2095
sg29
(lp2096
S'Adam, Charlie'
p2097
assg1
(g5
S'\xfc\xbe\x06\x00\x00\x00\x00\x00'
p2098
tp2099
Rp2100
(dp2101
g12
(lp2102
S'Morrison, James'
p2103
asg15
S'Wigan Athletic'
p2104
sg17
g1
(g5
S'o\x00\x00\x00\x00\x00\x00\x00'
p2105
tp2106
Rp2107
sg21
S'West Bromwich Albion'
p2108
sg23
(lp2109
I35
aI111
aI111
asg25
g1
(g5
S'#\x00\x00\x00\x00\x00\x00\x00'
p2110
tp2111
Rp2112
sg29
(lp2113
S'Caldwell, Gary'
p2114
aS'Kone, Arouna'
p2115
assg1
(g5
S'\xfd\xbe\x06\x00\x00\x00\x00\x00'
p2116
tp2117
Rp2118
(dp2119
g12
(lp2120
S'Adebayor, Emmanuel'
p2121
aS'Bale, Gareth'
p2122
asg15
g1951
sg17
g1
(g5
S'\x03\x00\x00\x00\x00\x00\x00\x00'
p2123
tp2124
Rp2125
sg21
g2026
sg23
(lp2126
I6
aI3
aI3
aI3
aI3
aI6
aI3
asg25
g1
(g5
S'\x06\x00\x00\x00\x00\x00\x00\x00'
p2127
tp2128
Rp2129
sg29
(lp2130
S'Mertesacker, Per'
p2131
ag1962
ag1961
aS'Cazorla, Santiago'
p2132
aS'Walcott, Theo'
p2133
assg1
(g5
S'\xfe\xbe\x06\x00\x00\x00\x00\x00'
p2134
tp2135
Rp2136
(dp2137
g12
(lp2138
S'Fletcher, Steven'
p2139
aS'Cuellar, Carlos'
p2140
aS'Sessegnon, Stephane'
p2141
asg15
S'Fulham'
p2142
sg17
g1
(g5
S'6\x00\x00\x00\x00\x00\x00\x00'
p2143
tp2144
Rp2145
sg21
g2008
sg23
(lp2146
I56
aI54
aI56
aI56
asg25
g1
(g5
S'8\x00\x00\x00\x00\x00\x00\x00'
p2147
tp2148
Rp2149
sg29
(lp2150
S'Petric, Mladen'
p2151
assg1
(g5
S'\xff\xbe\x06\x00\x00\x00\x00\x00'
p2152
tp2153
Rp2154
(dp2155
g12
(lp2156
sg15
S'Liverpool'
p2157
sg17
g1
(g5
S'\x0e\x00\x00\x00\x00\x00\x00\x00'
p2158
tp2159
Rp2160
sg21
g1907
sg23
(lp2161
I14
aI14
aI14
asg25
g1
(g5
S'o\x00\x00\x00\x00\x00\x00\x00'
p2162
tp2163
Rp2164
sg29
(lp2165
g1986
ag1986
aS'Enrique Sanchez Diaz, Jose'
p2166
assg1
(g5
S'\x00\xbf\x06\x00\x00\x00\x00\x00'
p2167
tp2168
Rp2169
(dp2170
g12
(lp2171
sg15
g2022
sg17
g1
(g5
S'+\x00\x00\x00\x00\x00\x00\x00'
p2172
tp2173
Rp2174
sg21
S'Aston Villa'
p2175
sg23
(lp2176
I43
aI43
aI43
aI43
aI43
asg25
g1
(g5
S'\x07\x00\x00\x00\x00\x00\x00\x00'
p2177
tp2178
Rp2179
sg29
(lp2180
S'Silva, David'
p2181
ag2032
aS'Tevez, Carlos'
p2182
ag2032
ag2182
assg1
(g5
S'\x01\xbf\x06\x00\x00\x00\x00\x00'
p2183
tp2184
Rp2185
(dp2186
g12
(lp2187
S'Perez Cuesta, Miguel'
p2188
aS'De Guzman, Jonathan'
p2189
asg15
g2040
sg17
g1
(g5
S'\x04\x00\x00\x00\x00\x00\x00\x00'
p2190
tp2191
Rp2192
sg21
g2075
sg23
(lp2193
I80
aI80
aI4
asg25
g1
(g5
S'P\x00\x00\x00\x00\x00\x00\x00'
p2194
tp2195
Rp2196
sg29
(lp2197
S'Ba, Demba'
p2198
assg1
(g5
S'\x02\xbf\x06\x00\x00\x00\x00\x00'
p2199
tp2200
Rp2201
(dp2202
g12
(lp2203
sg15
S'Norwich City'
p2204
sg17
g1
(g5
S'-\x00\x00\x00\x00\x00\x00\x00'
p2205
tp2206
Rp2207
sg21
g1973
sg23
(lp2208
I45
asg25
g1
(g5
S'\x01\x00\x00\x00\x00\x00\x00\x00'
p2209
tp2210
Rp2211
sg29
(lp2212
S'Pilkington, Anthony'
p2213
assg1
(g5
S'\x03\xbf\x06\x00\x00\x00\x00\x00'
p2214
tp2215
Rp2216
(dp2217
g12
(lp2218
S'Lambert, Rickie'
p2219
aS'Puncheon, Jason'
p2220
asg15
S'Queens Park Rangers'
p2221
sg17
g1
(g5
S'4\x00\x00\x00\x00\x00\x00\x00'
p2222
tp2223
Rp2224
sg21
S'Southampton'
p2225
sg23
(lp2226
I20
aI20
aI52
aI52
asg25
g1
(g5
S'\x14\x00\x00\x00\x00\x00\x00\x00'
p2227
tp2228
Rp2229
sg29
(lp2230
S'Hoilett, Junior'
p2231
aS'Ferdinand, Anton'
p2232
assg1
(g5
S'\x04\xbf\x06\x00\x00\x00\x00\x00'
p2233
tp2234
Rp2235
(dp2236
g12
(lp2237
S'Naismith, Steven'
p2238
asg15
S'Reading'
p2239
sg17
g1
(g5
S'l\x00\x00\x00\x00\x00\x00\x00'
p2240
tp2241
Rp2242
sg21
S'Everton'
p2243
sg23
(lp2244
I11
aI108
aI108
asg25
g1
(g5
S'\x0b\x00\x00\x00\x00\x00\x00\x00'
p2245
tp2246
Rp2247
sg29
(lp2248
S'Le Fondre, Adam'
p2249
ag2249
assg1
(g5
S'\x05\xbf\x06\x00\x00\x00\x00\x00'
p2250
tp2251
Rp2252
(dp2253
g12
(lp2254
S'Hazard, Eden'
p2255
asg15
S'West Bromwich Albion'
p2256
sg17
g1
(g5
S'#\x00\x00\x00\x00\x00\x00\x00'
p2257
tp2258
Rp2259
sg21
S'Chelsea'
p2260
sg23
(lp2261
I35
aI8
aI35
asg25
g1
(g5
S'\x08\x00\x00\x00\x00\x00\x00\x00'
p2262
tp2263
Rp2264
sg29
(lp2265
S'Long, Shane'
p2266
aS'Odemwingie, Peter'
p2267
assg1
(g5
S'\x06\xbf\x06\x00\x00\x00\x00\x00'
p2268
tp2269
Rp2270
(dp2271
g12
(lp2272
S'Walters, Jonathan'
p2273
asg15
S'West Ham United'
p2274
sg17
g1
(g5
S'\x15\x00\x00\x00\x00\x00\x00\x00'
p2275
tp2276
Rp2277
sg21
S'Stoke City'
p2278
sg23
(lp2279
I110
aI21
asg25
g1
(g5
S'n\x00\x00\x00\x00\x00\x00\x00'
p2280
tp2281
Rp2282
sg29
(lp2283
S"O'Brien, Joey"
p2284
assg1
(g5
S'\x07\xbf\x06\x00\x00\x00\x00\x00'
p2285
tp2286
Rp2287
(dp2288
g12
(lp2289
sg15
S'Aston Villa'
p2290
sg17
g1
(g5
S'\x07\x00\x00\x00\x00\x00\x00\x00'
p2291
tp2292
Rp2293
sg21
S'Arsenal'
p2294
sg23
(lp2295
sg25
g1
(g5
S'\x03\x00\x00\x00\x00\x00\x00\x00'
p2296
tp2297
Rp2298
sg29
(lp2299
ssg1
(g5
S'\x08\xbf\x06\x00\x00\x00\x00\x00'
p2300
tp2301
Rp2302
(dp2303
g12
(lp2304
sg15
S'Chelsea'
p2305
sg17
g1
(g5
S'\x08\x00\x00\x00\x00\x00\x00\x00'
p2306
tp2307
Rp2308
sg21
S'Manchester City'
p2309
sg23
(lp2310
sg25
g1
(g5
S'+\x00\x00\x00\x00\x00\x00\x00'
p2311
tp2312
Rp2313
sg29
(lp2314
ssg1
(g5
S'\t\xbf\x06\x00\x00\x00\x00\x00'
p2315
tp2316
Rp2317
(dp2318
g12
(lp2319
S'Bassong, Sebastien'
p2320
asg15
S'Everton'
p2321
sg17
g1
(g5
S'\x0b\x00\x00\x00\x00\x00\x00\x00'
p2322
tp2323
Rp2324
sg21
S'Norwich City'
p2325
sg23
(lp2326
I11
aI45
asg25
g1
(g5
S'-\x00\x00\x00\x00\x00\x00\x00'
p2327
tp2328
Rp2329
sg29
(lp2330
g2238
assg1
(g5
S'\n\xbf\x06\x00\x00\x00\x00\x00'
p2331
tp2332
Rp2333
(dp2334
g12
(lp2335
S'Mackie, Jamie'
p2336
asg15
S'Manchester United'
p2337
sg17
g1
(g5
S'\x01\x00\x00\x00\x00\x00\x00\x00'
p2338
tp2339
Rp2340
sg21
S'Queens Park Rangers'
p2341
sg23
(lp2342
I52
aI1
aI1
aI1
asg25
g1
(g5
S'4\x00\x00\x00\x00\x00\x00\x00'
p2343
tp2344
Rp2345
sg29
(lp2346
S'Evans, Jonny'
p2347
aS'Fletcher, Darren'
p2348
aS'Hernandez, Javier'
p2349
assg1
(g5
S'\x0b\xbf\x06\x00\x00\x00\x00\x00'
p2350
tp2351
Rp2352
(dp2353
g12
(lp2354
sg15
S'Southampton'
p2355
sg17
g1
(g5
S'\x14\x00\x00\x00\x00\x00\x00\x00'
p2356
tp2357
Rp2358
sg21
S'Newcastle United'
p2359
sg23
(lp2360
I20
aI20
asg25
g1
(g5
S'\x04\x00\x00\x00\x00\x00\x00\x00'
p2361
tp2362
Rp2363
sg29
(lp2364
S'Lallana, Adam'
p2365
aS'Ramirez, Gaston'
p2366
assg1
(g5
S'\x0c\xbf\x06\x00\x00\x00\x00\x00'
p2367
tp2368
Rp2369
(dp2370
g12
(lp2371
sg15
S'Stoke City'
p2372
sg17
g1
(g5
S'n\x00\x00\x00\x00\x00\x00\x00'
p2373
tp2374
Rp2375
sg21
S'Fulham'
p2376
sg23
(lp2377
I110
asg25
g1
(g5
S'6\x00\x00\x00\x00\x00\x00\x00'
p2378
tp2379
Rp2380
sg29
(lp2381
S'Adam, Charlie'
p2382
assg1
(g5
S'\r\xbf\x06\x00\x00\x00\x00\x00'
p2383
tp2384
Rp2385
(dp2386
g12
(lp2387
S'Gera, Zoltan'
p2388
ag2266
aS'Lukaku, Romelu'
p2389
aS'Fortune, Marc-Antoine'
p2390
asg15
S'Sunderland'
p2391
sg17
g1
(g5
S'8\x00\x00\x00\x00\x00\x00\x00'
p2392
tp2393
Rp2394
sg21
S'West Bromwich Albion'
p2395
sg23
(lp2396
I35
aI35
aI56
aI35
aI56
aI35
asg25
g1
(g5
S'#\x00\x00\x00\x00\x00\x00\x00'
p2397
tp2398
Rp2399
sg29
(lp2400
S'Gardner, Craig'
p2401
aS'Sessegnon, Stephane'
p2402
assg1
(g5
S'\x0e\xbf\x06\x00\x00\x00\x00\x00'
p2403
tp2404
Rp2405
(dp2406
g12
(lp2407
sg15
S'Swansea City'
p2408
sg17
g1
(g5
S'P\x00\x00\x00\x00\x00\x00\x00'
p2409
tp2410
Rp2411
sg21
S'Liverpool'
p2412
sg23
(lp2413
sg25
g1
(g5
S'\x0e\x00\x00\x00\x00\x00\x00\x00'
p2414
tp2415
Rp2416
sg29
(lp2417
ssg1
(g5
S'\x0f\xbf\x06\x00\x00\x00\x00\x00'
p2418
tp2419
Rp2420
(dp2421
g12
(lp2422
S'Carroll, Andy'
p2423
asg15
S'Tottenham Hotspur'
p2424
sg17
g1
(g5
S'\x06\x00\x00\x00\x00\x00\x00\x00'
p2425
tp2426
Rp2427
sg21
S'West Ham United'
p2428
sg23
(lp2429
I6
aI6
aI6
aI21
asg25
g1
(g5
S'\x15\x00\x00\x00\x00\x00\x00\x00'
p2430
tp2431
Rp2432
sg29
(lp2433
S'Defoe, Jermain'
p2434
aS'Bale, Gareth'
p2435
ag2434
assg1
(g5
S'\x10\xbf\x06\x00\x00\x00\x00\x00'
p2436
tp2437
Rp2438
(dp2439
g12
(lp2440
S'Morrison, Sean'
p2441
asg15
S'Wigan Athletic'
p2442
sg17
g1
(g5
S'o\x00\x00\x00\x00\x00\x00\x00'
p2443
tp2444
Rp2445
sg21
S'Reading'
p2446
sg23
(lp2447
I108
aI111
aI111
aI111
aI111
asg25
g1
(g5
S'l\x00\x00\x00\x00\x00\x00\x00'
p2448
tp2449
Rp2450
sg29
(lp2451
S'Gomez Garcia-Penche, Jordi'
p2452
ag2452
aS'Al-Habsi, Ali'
p2453
ag2452
assg1
(g5
S'\x11\xbf\x06\x00\x00\x00\x00\x00'
p2454
tp2455
Rp2456
(dp2457
g12
(lp2458
sg15
g2290
sg17
g1
(g5
S'\x07\x00\x00\x00\x00\x00\x00\x00'
p2459
tp2460
Rp2461
sg21
g2446
sg23
(lp2462
I7
asg25
g1
(g5
S'l\x00\x00\x00\x00\x00\x00\x00'
p2463
tp2464
Rp2465
sg29
(lp2466
S'Benteke, Christian'
p2467
assg1
(g5
S'\x12\xbf\x06\x00\x00\x00\x00\x00'
p2468
tp2469
Rp2470
(dp2471
g12
(lp2472
sg15
g2337
sg17
g1
(g5
S'\x01\x00\x00\x00\x00\x00\x00\x00'
p2473
tp2474
Rp2475
sg21
g2428
sg23
(lp2476
I1
asg25
g1
(g5
S'\x15\x00\x00\x00\x00\x00\x00\x00'
p2477
tp2478
Rp2479
sg29
(lp2480
S'van Persie, Robin'
p2481
assg1
(g5
S'\x13\xbf\x06\x00\x00\x00\x00\x00'
p2482
tp2483
Rp2484
(dp2485
g12
(lp2486
S'Snodgrass, Robert'
p2487
asg15
g2355
sg17
g1
(g5
S'\x14\x00\x00\x00\x00\x00\x00\x00'
p2488
tp2489
Rp2490
sg21
g2325
sg23
(lp2491
I20
aI45
asg25
g1
(g5
S'-\x00\x00\x00\x00\x00\x00\x00'
p2492
tp2493
Rp2494
sg29
(lp2495
g2219
assg1
(g5
S'\x14\xbf\x06\x00\x00\x00\x00\x00'
p2496
tp2497
Rp2498
(dp2499
g12
(lp2500
S'Cisse, Papiss Demba'
p2501
asg15
g2372
sg17
g1
(g5
S'n\x00\x00\x00\x00\x00\x00\x00'
p2502
tp2503
Rp2504
sg21
g2359
sg23
(lp2505
I4
aI110
aI110
asg25
g1
(g5
S'\x04\x00\x00\x00\x00\x00\x00\x00'
p2506
tp2507
Rp2508
sg29
(lp2509
g2273
aS'Jerome, Cameron'
p2510
assg1
(g5
S'\x15\xbf\x06\x00\x00\x00\x00\x00'
p2511
tp2512
Rp2513
(dp2514
g12
(lp2515
sg15
g2391
sg17
g1
(g5
S'8\x00\x00\x00\x00\x00\x00\x00'
p2516
tp2517
Rp2518
sg21
g2341
sg23
(lp2519
sg25
g1
(g5
S'4\x00\x00\x00\x00\x00\x00\x00'
p2520
tp2521
Rp2522
sg29
(lp2523
ssg1
(g5
S'\x16\xbf\x06\x00\x00\x00\x00\x00'
p2524
tp2525
Rp2526
(dp2527
g12
(lp2528
S'Lukaku, Romelu'
p2529
asg15
S'Swansea City'
p2530
sg17
g1
(g5
S'P\x00\x00\x00\x00\x00\x00\x00'
p2531
tp2532
Rp2533
sg21
S'West Bromwich Albion'
p2534
sg23
(lp2535
I80
aI80
aI80
aI35
asg25
g1
(g5
S'#\x00\x00\x00\x00\x00\x00\x00'
p2536
tp2537
Rp2538
sg29
(lp2539
S'Perez Cuesta, Miguel'
p2540
aS'Routledge, Wayne'
p2541
ag2541
assg1
(g5
S'\x17\xbf\x06\x00\x00\x00\x00\x00'
p2542
tp2543
Rp2544
(dp2545
g12
(lp2546
sg15
S'Tottenham Hotspur'
p2547
sg17
g1
(g5
S'\x06\x00\x00\x00\x00\x00\x00\x00'
p2548
tp2549
Rp2550
sg21
S'Liverpool'
p2551
sg23
(lp2552
I6
aI6
aI6
asg25
g1
(g5
S'\x0e\x00\x00\x00\x00\x00\x00\x00'
p2553
tp2554
Rp2555
sg29
(lp2556
S'Lennon, Aaron'
p2557
aS'Bale, Gareth'
p2558
ag2558
assg1
(g5
S'\x18\xbf\x06\x00\x00\x00\x00\x00'
p2559
tp2560
Rp2561
(dp2562
g12
(lp2563
S'Balotelli, Mario'
p2564
aS'Milner, James'
p2565
asg15
S'Wigan Athletic'
p2566
sg17
g1
(g5
S'o\x00\x00\x00\x00\x00\x00\x00'
p2567
tp2568
Rp2569
sg21
S'Manchester City'
p2570
sg23
(lp2571
I43
aI43
asg25
g1
(g5
S'+\x00\x00\x00\x00\x00\x00\x00'
p2572
tp2573
Rp2574
sg29
(lp2575
ssg1
(g5
S'\x19\xbf\x06\x00\x00\x00\x00\x00'
p2576
tp2577
Rp2578
(dp2579
g12
(lp2580
sg15
S'Chelsea'
p2581
sg17
g1
(g5
S'\x08\x00\x00\x00\x00\x00\x00\x00'
p2582
tp2583
Rp2584
sg21
S'Fulham'
p2585
sg23
(lp2586
sg25
g1
(g5
S'6\x00\x00\x00\x00\x00\x00\x00'
p2587
tp2588
Rp2589
sg29
(lp2590
ssg1
(g5
S'\x1a\xbf\x06\x00\x00\x00\x00\x00'
p2591
tp2592
Rp2593
(dp2594
g12
(lp2595
S'Walcott, Theo'
p2596
asg15
S'Everton'
p2597
sg17
g1
(g5
S'\x0b\x00\x00\x00\x00\x00\x00\x00'
p2598
tp2599
Rp2600
sg21
S'Arsenal'
p2601
sg23
(lp2602
I3
aI11
asg25
g1
(g5
S'\x03\x00\x00\x00\x00\x00\x00\x00'
p2603
tp2604
Rp2605
sg29
(lp2606
S'Fellaini, Marouane'
p2607
assg1
(g5
S'\x1b\xbf\x06\x00\x00\x00\x00\x00'
p2608
tp2609
Rp2610
(dp2611
g12
(lp2612
g2540
ag2540
asg15
S'Arsenal'
p2613
sg17
g1
(g5
S'\x03\x00\x00\x00\x00\x00\x00\x00'
p2614
tp2615
Rp2616
sg21
S'Swansea City'
p2617
sg23
(lp2618
I80
aI80
asg25
g1
(g5
S'P\x00\x00\x00\x00\x00\x00\x00'
p2619
tp2620
Rp2621
sg29
(lp2622
ssg1
(g5
S'\x1c\xbf\x06\x00\x00\x00\x00\x00'
p2623
tp2624
Rp2625
(dp2626
g12
(lp2627
S'Guimaraes Cordeiro, Sandro Ranieri'
p2628
aS'Defoe, Jermain'
p2629
ag2629
asg15
S'Fulham'
p2630
sg17
g1
(g5
S'6\x00\x00\x00\x00\x00\x00\x00'
p2631
tp2632
Rp2633
sg21
S'Tottenham Hotspur'
p2634
sg23
(lp2635
I6
aI6
aI6
asg25
g1
(g5
S'\x06\x00\x00\x00\x00\x00\x00\x00'
p2636
tp2637
Rp2638
sg29
(lp2639
ssg1
(g5
S'\x1d\xbf\x06\x00\x00\x00\x00\x00'
p2640
tp2641
Rp2642
(dp2643
g12
(lp2644
sg15
S'Liverpool'
p2645
sg17
g1
(g5
S'\x0e\x00\x00\x00\x00\x00\x00\x00'
p2646
tp2647
Rp2648
sg21
S'Southampton'
p2649
sg23
(lp2650
I14
asg25
g1
(g5
S'\x14\x00\x00\x00\x00\x00\x00\x00'
p2651
tp2652
Rp2653
sg29
(lp2654
S'Agger, Daniel'
p2655
assg1
(g5
S'\x1e\xbf\x06\x00\x00\x00\x00\x00'
p2656
tp2657
Rp2658
(dp2659
g12
(lp2660
g2607
asg15
S'Manchester City'
p2661
sg17
g1
(g5
S'+\x00\x00\x00\x00\x00\x00\x00'
p2662
tp2663
Rp2664
sg21
S'Everton'
p2665
sg23
(lp2666
I11
aI43
asg25
g1
(g5
S'\x0b\x00\x00\x00\x00\x00\x00\x00'
p2667
tp2668
Rp2669
sg29
(lp2670
S'Tevez, Carlos'
p2671
assg1
(g5
S'\x1f\xbf\x06\x00\x00\x00\x00\x00'
p2672
tp2673
Rp2674
(dp2675
g12
(lp2676
sg15
S'Newcastle United'
p2677
sg17
g1
(g5
S'\x04\x00\x00\x00\x00\x00\x00\x00'
p2678
tp2679
Rp2680
sg21
S'Wigan Athletic'
p2681
sg23
(lp2682
I4
aI4
aI4
asg25
g1
(g5
S'o\x00\x00\x00\x00\x00\x00\x00'
p2683
tp2684
Rp2685
sg29
(lp2686
S'Ba, Demba'
p2687
ag2687
aS'Bigirimana, Gael'
p2688
assg1
(g5
S' \xbf\x06\x00\x00\x00\x00\x00'
p2689
tp2690
Rp2691
(dp2692
g12
(lp2693
S'Gardner, Craig'
p2694
asg15
S'Norwich City'
p2695
sg17
g1
(g5
S'-\x00\x00\x00\x00\x00\x00\x00'
p2696
tp2697
Rp2698
sg21
S'Sunderland'
p2699
sg23
(lp2700
I45
aI45
aI56
asg25
g1
(g5
S'8\x00\x00\x00\x00\x00\x00\x00'
p2701
tp2702
Rp2703
sg29
(lp2704
S'Bassong, Sebastien'
p2705
aS'Pilkington, Anthony'
p2706
assg1
(g5
S'!\xbf\x06\x00\x00\x00\x00\x00'
p2707
tp2708
Rp2709
(dp2710
g12
(lp2711
S'Holman, Brett'
p2712
asg15
S'Queens Park Rangers'
p2713
sg17
g1
(g5
S'4\x00\x00\x00\x00\x00\x00\x00'
p2714
tp2715
Rp2716
sg21
S'Aston Villa'
p2717
sg23
(lp2718
I7
aI52
asg25
g1
(g5
S'\x07\x00\x00\x00\x00\x00\x00\x00'
p2719
tp2720
Rp2721
sg29
(lp2722
S'Mackie, Jamie'
p2723
assg1
(g5
S'"\xbf\x06\x00\x00\x00\x00\x00'
p2724
tp2725
Rp2726
(dp2727
g12
(lp2728
S'Oliveira, Anderson'
p2729
aS'Rooney, Wayne'
p2730
ag2730
aS'van Persie, Robin'
p2731
asg15
S'Reading'
p2732
sg17
g1
(g5
S'l\x00\x00\x00\x00\x00\x00\x00'
p2733
tp2734
Rp2735
sg21
S'Manchester United'
p2736
sg23
(lp2737
I108
aI1
aI1
aI108
aI108
aI1
aI1
asg25
g1
(g5
S'\x01\x00\x00\x00\x00\x00\x00\x00'
p2738
tp2739
Rp2740
sg29
(lp2741
S'Robson-Kanu, Hal'
p2742
aS'Le Fondre, Adam'
p2743
aS'Morrison, Sean'
p2744
assg1
(g5
S'#\xbf\x06\x00\x00\x00\x00\x00'
p2745
tp2746
Rp2747
(dp2748
g12
(lp2749
S'Whitehead, Dean'
p2750
asg15
S'West Bromwich Albion'
p2751
sg17
g1
(g5
S'#\x00\x00\x00\x00\x00\x00\x00'
p2752
tp2753
Rp2754
sg21
S'Stoke City'
p2755
sg23
(lp2756
I110
asg25
g1
(g5
S'n\x00\x00\x00\x00\x00\x00\x00'
p2757
tp2758
Rp2759
sg29
(lp2760
ssg1
(g5
S'$\xbf\x06\x00\x00\x00\x00\x00'
p2761
tp2762
Rp2763
(dp2764
g12
(lp2765
S'Mata, Juan'
p2766
asg15
S'West Ham United'
p2767
sg17
g1
(g5
S'\x15\x00\x00\x00\x00\x00\x00\x00'
p2768
tp2769
Rp2770
sg21
S'Chelsea'
p2771
sg23
(lp2772
I8
aI21
aI21
aI21
asg25
g1
(g5
S'\x08\x00\x00\x00\x00\x00\x00\x00'
p2773
tp2774
Rp2775
sg29
(lp2776
S'Cole, Carlton'
p2777
aS'Diame, Mohamed'
p2778
aS'Maiga, Modibo'
p2779
assg1
(g5
S'%\xbf\x06\x00\x00\x00\x00\x00'
p2780
tp2781
Rp2782
(dp2783
g12
(lp2784
sg15
g2613
sg17
g1
(g5
S'\x03\x00\x00\x00\x00\x00\x00\x00'
p2785
tp2786
Rp2787
sg21
g2534
sg23
(lp2788
I3
aI3
asg25
g1
(g5
S'#\x00\x00\x00\x00\x00\x00\x00'
p2789
tp2790
Rp2791
sg29
(lp2792
S'Arteta, Mikel'
p2793
ag2793
assg1
(g5
S'&\xbf\x06\x00\x00\x00\x00\x00'
p2794
tp2795
Rp2796
(dp2797
g12
(lp2798
sg15
S'Aston Villa'
p2799
sg17
g1
(g5
S'\x07\x00\x00\x00\x00\x00\x00\x00'
p2800
tp2801
Rp2802
sg21
g2755
sg23
(lp2803
sg25
g1
(g5
S'n\x00\x00\x00\x00\x00\x00\x00'
p2804
tp2805
Rp2806
sg29
(lp2807
ssg1
(g5
S"'\xbf\x06\x00\x00\x00\x00\x00"
p2808
tp2809
Rp2810
(dp2811
g12
(lp2812
S'Dempsey, Clint'
p2813
asg15
g2597
sg17
g1
(g5
S'\x0b\x00\x00\x00\x00\x00\x00\x00'
p2814
tp2815
Rp2816
sg21
g2634
sg23
(lp2817
I6
aI11
aI11
asg25
g1
(g5
S'\x06\x00\x00\x00\x00\x00\x00\x00'
p2818
tp2819
Rp2820
sg29
(lp2821
S'Pienaar, Steven'
p2822
aS'Jelavic, Nikica'
p2823
assg1
(g5
S'(\xbf\x06\x00\x00\x00\x00\x00'
p2824
tp2825
Rp2826
(dp2827
g12
(lp2828
S'Ben Arfa, Hatem'
p2829
asg15
g2630
sg17
g1
(g5
S'6\x00\x00\x00\x00\x00\x00\x00'
p2830
tp2831
Rp2832
sg21
S'Newcastle United'
p2833
sg23
(lp2834
I54
aI4
aI54
asg25
g1
(g5
S'\x04\x00\x00\x00\x00\x00\x00\x00'
p2835
tp2836
Rp2837
sg29
(lp2838
S'Sidwell, Steve'
p2839
aS'Rodallega, Hugo'
p2840
assg1
(g5
S')\xbf\x06\x00\x00\x00\x00\x00'
p2841
tp2842
Rp2843
(dp2844
g12
(lp2845
S'Rooney, Wayne'
p2846
ag2846
aS'van Persie, Robin'
p2847
asg15
S'Manchester City'
p2848
sg17
g1
(g5
S'+\x00\x00\x00\x00\x00\x00\x00'
p2849
tp2850
Rp2851
sg21
S'Manchester United'
p2852
sg23
(lp2853
I1
aI1
aI43
aI43
aI1
asg25
g1
(g5
S'\x01\x00\x00\x00\x00\x00\x00\x00'
p2854
tp2855
Rp2856
sg29
(lp2857
S'Toure, Gnegneri Yaya'
p2858
aS'Zabaleta, Pablo'
p2859
assg1
(g5
S'*\xbf\x06\x00\x00\x00\x00\x00'
p2860
tp2861
Rp2862
(dp2863
g12
(lp2864
sg15
S'Southampton'
p2865
sg17
g1
(g5
S'\x14\x00\x00\x00\x00\x00\x00\x00'
p2866
tp2867
Rp2868
sg21
S'Reading'
p2869
sg23
(lp2870
I20
asg25
g1
(g5
S'l\x00\x00\x00\x00\x00\x00\x00'
p2871
tp2872
Rp2873
sg29
(lp2874
S'Puncheon, Jason'
p2875
assg1
(g5
S'+\xbf\x06\x00\x00\x00\x00\x00'
p2876
tp2877
Rp2878
(dp2879
g12
(lp2880
S'Torres, Fernando'
p2881
ag2881
aS'Mata, Juan'
p2882
asg15
S'Sunderland'
p2883
sg17
g1
(g5
S'8\x00\x00\x00\x00\x00\x00\x00'
p2884
tp2885
Rp2886
sg21
S'Chelsea'
p2887
sg23
(lp2888
I8
aI8
aI8
aI56
asg25
g1
(g5
S'\x08\x00\x00\x00\x00\x00\x00\x00'
p2889
tp2890
Rp2891
sg29
(lp2892
S'Johnson, Adam'
p2893
assg1
(g5
S',\xbf\x06\x00\x00\x00\x00\x00'
p2894
tp2895
Rp2896
(dp2897
g12
(lp2898
S'Whittaker, Steven'
p2899
aS'Bassong, Sebastien'
p2900
aS'Holt, Grant'
p2901
aS'Snodgrass, Robert'
p2902
asg15
S'Swansea City'
p2903
sg17
g1
(g5
S'P\x00\x00\x00\x00\x00\x00\x00'
p2904
tp2905
Rp2906
sg21
S'Norwich City'
p2907
sg23
(lp2908
I45
aI45
aI45
aI80
aI80
aI45
aI80
asg25
g1
(g5
S'-\x00\x00\x00\x00\x00\x00\x00'
p2909
tp2910
Rp2911
sg29
(lp2912
S'Perez Cuesta, Miguel'
p2913
aS'De Guzman, Jonathan'
p2914
ag2913
assg1
(g5
S'-\xbf\x06\x00\x00\x00\x00\x00'
p2915
tp2916
Rp2917
(dp2918
g12
(lp2919
S'Johnson, Glen'
p2920
aS'Gerrard, Steven'
p2921
aS'Cole, Joe'
p2922
aS'Shelvey, Jonjo'
p2923
asg15
S'West Ham United'
p2924
sg17
g1
(g5
S'\x15\x00\x00\x00\x00\x00\x00\x00'
p2925
tp2926
Rp2927
sg21
S'Liverpool'
p2928
sg23
(lp2929
I14
aI21
aI14
aI14
aI14
asg25
g1
(g5
S'\x0e\x00\x00\x00\x00\x00\x00\x00'
p2930
tp2931
Rp2932
sg29
(lp2933
S'Noble, Mark'
p2934
assg1
(g5
S'.\xbf\x06\x00\x00\x00\x00\x00'
p2935
tp2936
Rp2937
(dp2938
g12
(lp2939
S'Nelsen, Ryan'
p2940
aS'Cisse, Djibril'
p2941
asg15
S'Wigan Athletic'
p2942
sg17
g1
(g5
S'o\x00\x00\x00\x00\x00\x00\x00'
p2943
tp2944
Rp2945
sg21
S'Queens Park Rangers'
p2946
sg23
(lp2947
I111
aI52
aI52
aI111
asg25
g1
(g5
S'4\x00\x00\x00\x00\x00\x00\x00'
p2948
tp2949
Rp2950
sg29
(lp2951
S'McCarthy, James'
p2952
ag2952
assg1
(g5
S'/\xbf\x06\x00\x00\x00\x00\x00'
p2953
tp2954
Rp2955
(dp2956
g12
(lp2957
S'Lambert, Rickie'
p2958
ag2875
asg15
S'Chelsea'
p2959
sg17
g1
(g5
S'\x08\x00\x00\x00\x00\x00\x00\x00'
p2960
tp2961
Rp2962
sg21
S'Southampton'
p2963
sg23
(lp2964
I8
aI8
aI20
aI20
asg25
g1
(g5
S'\x14\x00\x00\x00\x00\x00\x00\x00'
p2965
tp2966
Rp2967
sg29
(lp2968
S'Ba, Demba'
p2969
aS'Hazard, Eden'
p2970
assg1
(g5
S'0\xbf\x06\x00\x00\x00\x00\x00'
p2971
tp2972
Rp2973
(dp2974
g12
(lp2975
S'Benteke, Christian'
p2976
aS'Weimann, Andreas'
p2977
ag2976
asg15
S'Liverpool'
p2978
sg17
g1
(g5
S'\x0e\x00\x00\x00\x00\x00\x00\x00'
p2979
tp2980
Rp2981
sg21
S'Aston Villa'
p2982
sg23
(lp2983
I7
aI7
aI7
aI14
asg25
g1
(g5
S'\x07\x00\x00\x00\x00\x00\x00\x00'
p2984
tp2985
Rp2986
sg29
(lp2987
g2921
assg1
(g5
S'1\xbf\x06\x00\x00\x00\x00\x00'
p2988
tp2989
Rp2990
(dp2991
g12
(lp2992
S'Campbell, Fraizer'
p2993
asg15
S'Manchester United'
p2994
sg17
g1
(g5
S'\x01\x00\x00\x00\x00\x00\x00\x00'
p2995
tp2996
Rp2997
sg21
S'Sunderland'
p2998
sg23
(lp2999
I1
aI1
aI1
aI56
asg25
g1
(g5
S'8\x00\x00\x00\x00\x00\x00\x00'
p3000
tp3001
Rp3002
sg29
(lp3003
g2847
aS'Cleverley, Tom'
p3004
ag2846
assg1
(g5
S'2\xbf\x06\x00\x00\x00\x00\x00'
p3005
tp3006
Rp3007
(dp3008
g12
(lp3009
S'Aguero, Sergio'
p3010
aS'Garcia Fernandez, Francisco Javier'
p3011
ag2858
asg15
S'Newcastle United'
p3012
sg17
g1
(g5
S'\x04\x00\x00\x00\x00\x00\x00\x00'
p3013
tp3014
Rp3015
sg21
S'Manchester City'
p3016
sg23
(lp3017
I43
aI43
aI4
aI43
asg25
g1
(g5
S'+\x00\x00\x00\x00\x00\x00\x00'
p3018
tp3019
Rp3020
sg29
(lp3021
g2969
assg1
(g5
S'3\xbf\x06\x00\x00\x00\x00\x00'
p3022
tp3023
Rp3024
(dp3025
g12
(lp3026
S'Maloney, Shaun'
p3027
asg15
S'Norwich City'
p3028
sg17
g1
(g5
S'-\x00\x00\x00\x00\x00\x00\x00'
p3029
tp3030
Rp3031
sg21
S'Wigan Athletic'
p3032
sg23
(lp3033
I45
aI111
aI45
asg25
g1
(g5
S'o\x00\x00\x00\x00\x00\x00\x00'
p3034
tp3035
Rp3036
sg29
(lp3037
S'Pilkington, Anthony'
p3038
aS'Hoolahan, Wes'
p3039
assg1
(g5
S'4\xbf\x06\x00\x00\x00\x00\x00'
p3040
tp3041
Rp3042
(dp3043
g12
(lp3044
S'Petric, Mladen'
p3045
asg15
S'Queens Park Rangers'
p3046
sg17
g1
(g5
S'4\x00\x00\x00\x00\x00\x00\x00'
p3047
tp3048
Rp3049
sg21
S'Fulham'
p3050
sg23
(lp3051
I52
aI52
aI54
asg25
g1
(g5
S'6\x00\x00\x00\x00\x00\x00\x00'
p3052
tp3053
Rp3054
sg29
(lp3055
S'Taarabt, Adel'
p3056
ag3056
assg1
(g5
S'5\xbf\x06\x00\x00\x00\x00\x00'
p3057
tp3058
Rp3059
(dp3060
g12
(lp3061
S'Podolski, Lukas'
p3062
aS'Cazorla, Santiago'
p3063
ag3063
ag3063
aS'Walcott, Theo'
p3064
asg15
S'Reading'
p3065
sg17
g1
(g5
S'l\x00\x00\x00\x00\x00\x00\x00'
p3066
tp3067
Rp3068
sg21
S'Arsenal'
p3069
sg23
(lp3070
I3
aI3
aI3
aI3
aI108
aI108
aI3
asg25
g1
(g5
S'\x03\x00\x00\x00\x00\x00\x00\x00'
p3071
tp3072
Rp3073
sg29
(lp3074
S'Le Fondre, Adam'
p3075
aS'Kebe, Jimmy'
p3076
assg1
(g5
S'6\xbf\x06\x00\x00\x00\x00\x00'
p3077
tp3078
Rp3079
(dp3080
g12
(lp3081
sg15
S'Stoke City'
p3082
sg17
g1
(g5
S'n\x00\x00\x00\x00\x00\x00\x00'
p3083
tp3084
Rp3085
sg21
S'Everton'
p3086
sg23
(lp3087
I110
aI110
asg25
g1
(g5
S'\x0b\x00\x00\x00\x00\x00\x00\x00'
p3088
tp3089
Rp3090
sg29
(lp3091
S'Shawcross, Ryan'
p3092
aS'Jones, Kenwyne'
p3093
assg1
(g5
S'7\xbf\x06\x00\x00\x00\x00\x00'
p3094
tp3095
Rp3096
(dp3097
g12
(lp3098
sg15
S'Tottenham Hotspur'
p3099
sg17
g1
(g5
S'\x06\x00\x00\x00\x00\x00\x00\x00'
p3100
tp3101
Rp3102
sg21
S'Swansea City'
p3103
sg23
(lp3104
I6
asg25
g1
(g5
S'P\x00\x00\x00\x00\x00\x00\x00'
p3105
tp3106
Rp3107
sg29
(lp3108
S'Vertonghen, Jan'
p3109
assg1
(g5
S'8\xbf\x06\x00\x00\x00\x00\x00'
p3110
tp3111
Rp3112
(dp3113
g12
(lp3114
sg15
S'West Bromwich Albion'
p3115
sg17
g1
(g5
S'#\x00\x00\x00\x00\x00\x00\x00'
p3116
tp3117
Rp3118
sg21
S'West Ham United'
p3119
sg23
(lp3120
sg25
g1
(g5
S'\x15\x00\x00\x00\x00\x00\x00\x00'
p3121
tp3122
Rp3123
sg29
(lp3124
ssg1
(g5
S'9\xbf\x06\x00\x00\x00\x00\x00'
p3125
tp3126
Rp3127
(dp3128
g12
(lp3129
sg15
g2959
sg17
g1
(g5
S'\x08\x00\x00\x00\x00\x00\x00\x00'
p3130
tp3131
Rp3132
sg21
g2982
sg23
(lp3133
I8
aI8
aI8
aI8
aI8
aI8
aI8
aI8
asg25
g1
(g5
S'\x07\x00\x00\x00\x00\x00\x00\x00'
p3134
tp3135
Rp3136
sg29
(lp3137
g2881
aS'Luiz Moreira Marinho, David'
p3138
aS'Ivanovic, Branislav'
p3139
aS'Lampard, Frank'
p3140
aS'Santos do Nascimento, Ramires'
p3141
aS'dos Santos Emboada Junior, Oscar'
p3142
ag2970
ag3141
assg1
(g5
S':\xbf\x06\x00\x00\x00\x00\x00'
p3143
tp3144
Rp3145
(dp3146
g12
(lp3147
sg15
g2978
sg17
g1
(g5
S'\x0e\x00\x00\x00\x00\x00\x00\x00'
p3148
tp3149
Rp3150
sg21
g3050
sg23
(lp3151
I14
aI14
aI14
aI14
asg25
g1
(g5
S'6\x00\x00\x00\x00\x00\x00\x00'
p3152
tp3153
Rp3154
sg29
(lp3155
S'Skrtel, Martin'
p3156
ag2921
aS'Downing, Stewart'
p3157
aS'Suarez, Luis'
p3158
assg1
(g5
S';\xbf\x06\x00\x00\x00\x00\x00'
p3159
tp3160
Rp3161
(dp3162
g12
(lp3163
sg15
g2848
sg17
g1
(g5
S'+\x00\x00\x00\x00\x00\x00\x00'
p3164
tp3165
Rp3166
sg21
g2869
sg23
(lp3167
I43
asg25
g1
(g5
S'l\x00\x00\x00\x00\x00\x00\x00'
p3168
tp3169
Rp3170
sg29
(lp3171
S'Barry, Gareth'
p3172
assg1
(g5
S'<\xbf\x06\x00\x00\x00\x00\x00'
p3173
tp3174
Rp3175
(dp3176
g12
(lp3177
sg15
S'Newcastle United'
p3178
sg17
g1
(g5
S'\x04\x00\x00\x00\x00\x00\x00\x00'
p3179
tp3180
Rp3181
sg21
S'Queens Park Rangers'
p3182
sg23
(lp3183
I4
asg25
g1
(g5
S'4\x00\x00\x00\x00\x00\x00\x00'
p3184
tp3185
Rp3186
sg29
(lp3187
S'Ameobi, Shola'
p3188
assg1
(g5
S'=\xbf\x06\x00\x00\x00\x00\x00'
p3189
tp3190
Rp3191
(dp3192
g12
(lp3193
S'Fletcher, Steven'
p3194
asg15
S'Southampton'
p3195
sg17
g1
(g5
S'\x14\x00\x00\x00\x00\x00\x00\x00'
p3196
tp3197
Rp3198
sg21
S'Sunderland'
p3199
sg23
(lp3200
I56
asg25
g1
(g5
S'8\x00\x00\x00\x00\x00\x00\x00'
p3201
tp3202
Rp3203
sg29
(lp3204
ssg1
(g5
S'>\xbf\x06\x00\x00\x00\x00\x00'
p3205
tp3206
Rp3207
(dp3208
g12
(lp3209
S'Evra, Patrice'
p3210
asg15
S'Swansea City'
p3211
sg17
g1
(g5
S'P\x00\x00\x00\x00\x00\x00\x00'
p3212
tp3213
Rp3214
sg21
S'Manchester United'
p3215
sg23
(lp3216
I1
aI80
asg25
g1
(g5
S'\x01\x00\x00\x00\x00\x00\x00\x00'
p3217
tp3218
Rp3219
sg29
(lp3220
S'Perez Cuesta, Miguel'
p3221
assg1
(g5
S'?\xbf\x06\x00\x00\x00\x00\x00'
p3222
tp3223
Rp3224
(dp3225
g12
(lp3226
sg15
S'Tottenham Hotspur'
p3227
sg17
g1
(g5
S'\x06\x00\x00\x00\x00\x00\x00\x00'
p3228
tp3229
Rp3230
sg21
S'Stoke City'
p3231
sg23
(lp3232
sg25
g1
(g5
S'n\x00\x00\x00\x00\x00\x00\x00'
p3233
tp3234
Rp3235
sg29
(lp3236
ssg1
(g5
S'@\xbf\x06\x00\x00\x00\x00\x00'
p3237
tp3238
Rp3239
(dp3240
g12
(lp3241
S'Snodgrass, Robert'
p3242
asg15
S'West Bromwich Albion'
p3243
sg17
g1
(g5
S'#\x00\x00\x00\x00\x00\x00\x00'
p3244
tp3245
Rp3246
sg21
S'Norwich City'
p3247
sg23
(lp3248
I45
aI35
aI35
asg25
g1
(g5
S'-\x00\x00\x00\x00\x00\x00\x00'
p3249
tp3250
Rp3251
sg29
(lp3252
S'Gera, Zoltan'
p3253
aS'Lukaku, Romelu'
p3254
assg1
(g5
S'A\xbf\x06\x00\x00\x00\x00\x00'
p3255
tp3256
Rp3257
(dp3258
g12
(lp3259
S'Anichebe, Victor'
p3260
aS'Pienaar, Steven'
p3261
asg15
S'West Ham United'
p3262
sg17
g1
(g5
S'\x15\x00\x00\x00\x00\x00\x00\x00'
p3263
tp3264
Rp3265
sg21
S'Everton'
p3266
sg23
(lp3267
I21
aI11
aI11
asg25
g1
(g5
S'\x0b\x00\x00\x00\x00\x00\x00\x00'
p3268
tp3269
Rp3270
sg29
(lp3271
S'Cole, Carlton'
p3272
assg1
(g5
S'B\xbf\x06\x00\x00\x00\x00\x00'
p3273
tp3274
Rp3275
(dp3276
g12
(lp3277
S'Arteta, Mikel'
p3278
asg15
S'Wigan Athletic'
p3279
sg17
g1
(g5
S'o\x00\x00\x00\x00\x00\x00\x00'
p3280
tp3281
Rp3282
sg21
S'Arsenal'
p3283
sg23
(lp3284
I3
asg25
g1
(g5
S'\x03\x00\x00\x00\x00\x00\x00\x00'
p3285
tp3286
Rp3287
sg29
(lp3288
ssg1
(g5
S'C\xbf\x06\x00\x00\x00\x00\x00'
p3289
tp3290
Rp3291
(dp3292
g12
(lp3293
S'Collison, Jack'
p3294
asg15
S'Arsenal'
p3295
sg17
g1
(g5
S'\x03\x00\x00\x00\x00\x00\x00\x00'
p3296
tp3297
Rp3298
sg21
S'West Ham United'
p3299
sg23
(lp3300
I21
aI3
aI3
aI3
aI3
aI3
asg25
g1
(g5
S'\x15\x00\x00\x00\x00\x00\x00\x00'
p3301
tp3302
Rp3303
sg29
(lp3304
S'Podolski, Lukas'
p3305
aS'Giroud, Olivier'
p3306
aS'Cazorla, Santiago'
p3307
aS'Walcott, Theo'
p3308
ag3306
assg1
(g5
S'D\xbf\x06\x00\x00\x00\x00\x00'
p3309
tp3310
Rp3311
(dp3312
g12
(lp3313
S'Defoe, Jermain'
p3314
aS'Bale, Gareth'
p3315
ag3315
ag3315
asg15
S'Aston Villa'
p3316
sg17
g1
(g5
S'\x07\x00\x00\x00\x00\x00\x00\x00'
p3317
tp3318
Rp3319
sg21
S'Tottenham Hotspur'
p3320
sg23
(lp3321
I6
aI6
aI6
aI6
asg25
g1
(g5
S'\x06\x00\x00\x00\x00\x00\x00\x00'
p3322
tp3323
Rp3324
sg29
(lp3325
ssg1
(g5
S'E\xbf\x06\x00\x00\x00\x00\x00'
p3326
tp3327
Rp3328
(dp3329
g12
(lp3330
S'Kone, Arouna'
p3331
asg15
S'Everton'
p3332
sg17
g1
(g5
S'\x0b\x00\x00\x00\x00\x00\x00\x00'
p3333
tp3334
Rp3335
sg21
S'Wigan Athletic'
p3336
sg23
(lp3337
I11
aI11
aI111
asg25
g1
(g5
S'o\x00\x00\x00\x00\x00\x00\x00'
p3338
tp3339
Rp3340
sg29
(lp3341
S'Osman, Leon'
p3342
aS'Jagielka, Phil'
p3343
assg1
(g5
S'F\xbf\x06\x00\x00\x00\x00\x00'
p3344
tp3345
Rp3346
(dp3347
g12
(lp3348
S'Lambert, Rickie'
p3349
asg15
S'Fulham'
p3350
sg17
g1
(g5
S'6\x00\x00\x00\x00\x00\x00\x00'
p3351
tp3352
Rp3353
sg21
S'Southampton'
p3354
sg23
(lp3355
I54
aI20
asg25
g1
(g5
S'\x14\x00\x00\x00\x00\x00\x00\x00'
p3356
tp3357
Rp3358
sg29
(lp3359
S'Berbatov, Dimitar'
p3360
assg1
(g5
S'G\xbf\x06\x00\x00\x00\x00\x00'
p3361
tp3362
Rp3363
(dp3364
g12
(lp3365
S'Perch, James'
p3366
aS'Cisse, Papiss Demba'
p3367
asg15
S'Manchester United'
p3368
sg17
g1
(g5
S'\x01\x00\x00\x00\x00\x00\x00\x00'
p3369
tp3370
Rp3371
sg21
S'Newcastle United'
p3372
sg23
(lp3373
I4
aI1
aI1
aI1
aI4
aI1
aI1
asg25
g1
(g5
S'\x04\x00\x00\x00\x00\x00\x00\x00'
p3374
tp3375
Rp3376
sg29
(lp3377
S'Evans, Jonny'
p3378
ag3378
ag3210
aS'van Persie, Robin'
p3379
aS'Hernandez, Javier'
p3380
assg1
(g5
S'H\xbf\x06\x00\x00\x00\x00\x00'
p3381
tp3382
Rp3383
(dp3384
g12
(lp3385
S'Mata, Juan'
p3386
asg15
S'Norwich City'
p3387
sg17
g1
(g5
S'-\x00\x00\x00\x00\x00\x00\x00'
p3388
tp3389
Rp3390
sg21
S'Chelsea'
p3391
sg23
(lp3392
I8
asg25
g1
(g5
S'\x08\x00\x00\x00\x00\x00\x00\x00'
p3393
tp3394
Rp3395
sg29
(lp3396
ssg1
(g5
S'I\xbf\x06\x00\x00\x00\x00\x00'
p3397
tp3398
Rp3399
(dp3400
g12
(lp3401
S'Brunt, Chris'
p3402
asg15
S'Queens Park Rangers'
p3403
sg17
g1
(g5
S'4\x00\x00\x00\x00\x00\x00\x00'
p3404
tp3405
Rp3406
sg21
S'West Bromwich Albion'
p3407
sg23
(lp3408
I35
aI52
aI52
asg25
g1
(g5
S'#\x00\x00\x00\x00\x00\x00\x00'
p3409
tp3410
Rp3411
sg29
(lp3412
S'Green, Robert'
p3413
aS'Cisse, Djibril'
p3414
assg1
(g5
S'J\xbf\x06\x00\x00\x00\x00\x00'
p3415
tp3416
Rp3417
(dp3418
g12
(lp3419
sg15
S'Reading'
p3420
sg17
g1
(g5
S'l\x00\x00\x00\x00\x00\x00\x00'
p3421
tp3422
Rp3423
sg21
S'Swansea City'
p3424
sg23
(lp3425
sg25
g1
(g5
S'P\x00\x00\x00\x00\x00\x00\x00'
p3426
tp3427
Rp3428
sg29
(lp3429
ssg1
(g5
S'K\xbf\x06\x00\x00\x00\x00\x00'
p3430
tp3431
Rp3432
(dp3433
g12
(lp3434
S'Gerrard, Steven'
p3435
asg15
S'Stoke City'
p3436
sg17
g1
(g5
S'n\x00\x00\x00\x00\x00\x00\x00'
p3437
tp3438
Rp3439
sg21
S'Liverpool'
p3440
sg23
(lp3441
I14
aI110
aI110
aI110
asg25
g1
(g5
S'\x0e\x00\x00\x00\x00\x00\x00\x00'
p3442
tp3443
Rp3444
sg29
(lp3445
S'Walters, Jonathan'
p3446
aS'Jones, Kenwyne'
p3447
ag3446
assg1
(g5
S'L\xbf\x06\x00\x00\x00\x00\x00'
p3448
tp3449
Rp3450
(dp3451
g12
(lp3452
sg15
S'Sunderland'
p3453
sg17
g1
(g5
S'8\x00\x00\x00\x00\x00\x00\x00'
p3454
tp3455
Rp3456
sg21
S'Manchester City'
p3457
sg23
(lp3458
I56
asg25
g1
(g5
S'+\x00\x00\x00\x00\x00\x00\x00'
p3459
tp3460
Rp3461
sg29
(lp3462
S'Johnson, Adam'
p3463
assg1
(g5
S'M\xbf\x06\x00\x00\x00\x00\x00'
p3464
tp3465
Rp3466
(dp3467
g12
(lp3468
S'Ba, Demba'
p3469
aS'Marveaux, Sylvain'
p3470
ag3469
asg15
g3295
sg17
g1
(g5
S'\x03\x00\x00\x00\x00\x00\x00\x00'
p3471
tp3472
Rp3473
sg21
g3372
sg23
(lp3474
I3
aI4
aI3
aI4
aI3
aI4
aI3
aI3
aI3
aI3
asg25
g1
(g5
S'\x04\x00\x00\x00\x00\x00\x00\x00'
p3475
tp3476
Rp3477
sg29
(lp3478
g3308
aS'Oxlade-Chamberlain, Alex'
p3479
ag3305
ag3308
ag3306
ag3306
ag3308
assg1
(g5
S'N\xbf\x06\x00\x00\x00\x00\x00'
p3480
tp3481
Rp3482
(dp3483
g12
(lp3484
S'Ramis, Ivan'
p3485
aS'Boyce, Emmerson'
p3486
ag3331
asg15
g3316
sg17
g1
(g5
S'\x07\x00\x00\x00\x00\x00\x00\x00'
p3487
tp3488
Rp3489
sg21
g3336
sg23
(lp3490
I111
aI111
aI111
asg25
g1
(g5
S'o\x00\x00\x00\x00\x00\x00\x00'
p3491
tp3492
Rp3493
sg29
(lp3494
ssg1
(g5
S'O\xbf\x06\x00\x00\x00\x00\x00'
p3495
tp3496
Rp3497
(dp3498
g12
(lp3499
S'Lampard, Frank'
p3500
ag3500
asg15
S'Everton'
p3501
sg17
g1
(g5
S'\x0b\x00\x00\x00\x00\x00\x00\x00'
p3502
tp3503
Rp3504
sg21
S'Chelsea'
p3505
sg23
(lp3506
I11
aI8
aI8
asg25
g1
(g5
S'\x08\x00\x00\x00\x00\x00\x00\x00'
p3507
tp3508
Rp3509
sg29
(lp3510
S'Pienaar, Steven'
p3511
assg1
(g5
S'P\xbf\x06\x00\x00\x00\x00\x00'
p3512
tp3513
Rp3514
(dp3515
g12
(lp3516
S'Graham, Danny'
p3517
aS'De Guzman, Jonathan'
p3518
asg15
S'Fulham'
p3519
sg17
g1
(g5
S'6\x00\x00\x00\x00\x00\x00\x00'
p3520
tp3521
Rp3522
sg21
S'Swansea City'
p3523
sg23
(lp3524
I80
aI80
aI54
asg25
g1
(g5
S'P\x00\x00\x00\x00\x00\x00\x00'
p3525
tp3526
Rp3527
sg29
(lp3528
S'Ruiz, Bryan'
p3529
assg1
(g5
S'Q\xbf\x06\x00\x00\x00\x00\x00'
p3530
tp3531
Rp3532
(dp3533
g12
(lp3534
S'McAuley, Gareth'
p3535
asg15
S'Manchester United'
p3536
sg17
g1
(g5
S'\x01\x00\x00\x00\x00\x00\x00\x00'
p3537
tp3538
Rp3539
sg21
S'West Bromwich Albion'
p3540
sg23
(lp3541
I35
aI1
asg25
g1
(g5
S'#\x00\x00\x00\x00\x00\x00\x00'
p3542
tp3543
Rp3544
sg29
(lp3545
S'van Persie, Robin'
p3546
assg1
(g5
S'R\xbf\x06\x00\x00\x00\x00\x00'
p3547
tp3548
Rp3549
(dp3550
g12
(lp3551
S'Dzeko, Edin'
p3552
ag3552
aS'Aguero, Sergio'
p3553
asg15
S'Norwich City'
p3554
sg17
g1
(g5
S'-\x00\x00\x00\x00\x00\x00\x00'
p3555
tp3556
Rp3557
sg21
S'Manchester City'
p3558
sg23
(lp3559
I43
aI43
aI45
aI43
aI45
aI45
aI45
asg25
g1
(g5
S'+\x00\x00\x00\x00\x00\x00\x00'
p3560
tp3561
Rp3562
sg29
(lp3563
S'Pilkington, Anthony'
p3564
aS'Martin, Russell'
p3565
aS'Bunn, Mark'
p3566
ag3565
assg1
(g5
S'S\xbf\x06\x00\x00\x00\x00\x00'
p3567
tp3568
Rp3569
(dp3570
g12
(lp3571
S'Suarez, Luis'
p3572
ag3572
aS'Agger, Daniel'
p3573
asg15
S'Queens Park Rangers'
p3574
sg17
g1
(g5
S'4\x00\x00\x00\x00\x00\x00\x00'
p3575
tp3576
Rp3577
sg21
S'Liverpool'
p3578
sg23
(lp3579
I14
aI14
aI14
asg25
g1
(g5
S'\x0e\x00\x00\x00\x00\x00\x00\x00'
p3580
tp3581
Rp3582
sg29
(lp3583
ssg1
(g5
S'T\xbf\x06\x00\x00\x00\x00\x00'
p3584
tp3585
Rp3586
(dp3587
g12
(lp3588
sg15
S'Reading'
p3589
sg17
g1
(g5
S'l\x00\x00\x00\x00\x00\x00\x00'
p3590
tp3591
Rp3592
sg21
S'West Ham United'
p3593
sg23
(lp3594
I108
asg25
g1
(g5
S'\x15\x00\x00\x00\x00\x00\x00\x00'
p3595
tp3596
Rp3597
sg29
(lp3598
S'Pogrebnyak, Pavel'
p3599
assg1
(g5
S'U\xbf\x06\x00\x00\x00\x00\x00'
p3600
tp3601
Rp3602
(dp3603
g12
(lp3604
S'Lambert, Rickie'
p3605
aS'Rodriguez, Jay'
p3606
asg15
S'Stoke City'
p3607
sg17
g1
(g5
S'n\x00\x00\x00\x00\x00\x00\x00'
p3608
tp3609
Rp3610
sg21
S'Southampton'
p3611
sg23
(lp3612
I20
aI110
aI20
aI110
aI110
aI110
asg25
g1
(g5
S'\x14\x00\x00\x00\x00\x00\x00\x00'
p3613
tp3614
Rp3615
sg29
(lp3616
S'Jones, Kenwyne'
p3617
aS'Wilkinson, Andy'
p3618
aS'Upson, Matthew'
p3619
aS'Jerome, Cameron'
p3620
assg1
(g5
S'V\xbf\x06\x00\x00\x00\x00\x00'
p3621
tp3622
Rp3623
(dp3624
g12
(lp3625
S'Lennon, Aaron'
p3626
asg15
S'Sunderland'
p3627
sg17
g1
(g5
S'8\x00\x00\x00\x00\x00\x00\x00'
p3628
tp3629
Rp3630
sg21
S'Tottenham Hotspur'
p3631
sg23
(lp3632
I56
aI56
aI6
asg25
g1
(g5
S'\x06\x00\x00\x00\x00\x00\x00\x00'
p3633
tp3634
Rp3635
sg29
(lp3636
S"O'Shea, John"
p3637
aS'Cuellar, Carlos'
p3638
assg1
(g5
S'W\xbf\x06\x00\x00\x00\x00\x00'
p3639
tp3640
Rp3641
(dp3642
g12
(lp3643
S'Wright-Phillips, Shaun'
p3644
asg15
S'Chelsea'
p3645
sg17
g1
(g5
S'\x08\x00\x00\x00\x00\x00\x00\x00'
p3646
tp3647
Rp3648
sg21
S'Queens Park Rangers'
p3649
sg23
(lp3650
I52
asg25
g1
(g5
S'4\x00\x00\x00\x00\x00\x00\x00'
p3651
tp3652
Rp3653
sg29
(lp3654
ssg1
(g5
S'X\xbf\x06\x00\x00\x00\x00\x00'
p3655
tp3656
Rp3657
(dp3658
g12
(lp3659
sg15
S'Liverpool'
p3660
sg17
g1
(g5
S'\x0e\x00\x00\x00\x00\x00\x00\x00'
p3661
tp3662
Rp3663
sg21
S'Sunderland'
p3664
sg23
(lp3665
I14
aI14
aI14
asg25
g1
(g5
S'8\x00\x00\x00\x00\x00\x00\x00'
p3666
tp3667
Rp3668
sg29
(lp3669
S'Sterling, Raheem'
p3670
ag3572
ag3572
assg1
(g5
S'Y\xbf\x06\x00\x00\x00\x00\x00'
p3671
tp3672
Rp3673
(dp3674
g12
(lp3675
sg15
S'Manchester City'
p3676
sg17
g1
(g5
S'+\x00\x00\x00\x00\x00\x00\x00'
p3677
tp3678
Rp3679
sg21
S'Stoke City'
p3680
sg23
(lp3681
I43
aI43
aI43
asg25
g1
(g5
S'n\x00\x00\x00\x00\x00\x00\x00'
p3682
tp3683
Rp3684
sg29
(lp3685
S'Zabaleta, Pablo'
p3686
ag3552
ag3553
assg1
(g5
S'Z\xbf\x06\x00\x00\x00\x00\x00'
p3687
tp3688
Rp3689
(dp3690
g12
(lp3691
S'Baines, Leighton'
p3692
aS'Anichebe, Victor'
p3693
asg15
S'Newcastle United'
p3694
sg17
g1
(g5
S'\x04\x00\x00\x00\x00\x00\x00\x00'
p3695
tp3696
Rp3697
sg21
S'Everton'
p3698
sg23
(lp3699
I4
aI11
aI11
asg25
g1
(g5
S'\x0b\x00\x00\x00\x00\x00\x00\x00'
p3700
tp3701
Rp3702
sg29
(lp3703
S'Cisse, Papiss Demba'
p3704
assg1
(g5
S'[\xbf\x06\x00\x00\x00\x00\x00'
p3705
tp3706
Rp3707
(dp3708
g12
(lp3709
sg15
S'Southampton'
p3710
sg17
g1
(g5
S'\x14\x00\x00\x00\x00\x00\x00\x00'
p3711
tp3712
Rp3713
sg21
S'Arsenal'
p3714
sg23
(lp3715
I20
aI20
asg25
g1
(g5
S'\x03\x00\x00\x00\x00\x00\x00\x00'
p3716
tp3717
Rp3718
sg29
(lp3719
S'Ramirez, Gaston'
p3720
aS'Do Prado, Guilherme'
p3721
assg1
(g5
S'\\\xbf\x06\x00\x00\x00\x00\x00'
p3722
tp3723
Rp3724
(dp3725
g12
(lp3726
S'Weimann, Andreas'
p3727
aS'Benteke, Christian'
p3728
asg15
S'Swansea City'
p3729
sg17
g1
(g5
S'P\x00\x00\x00\x00\x00\x00\x00'
p3730
tp3731
Rp3732
sg21
S'Aston Villa'
p3733
sg23
(lp3734
I80
aI7
aI7
aI80
asg25
g1
(g5
S'\x07\x00\x00\x00\x00\x00\x00\x00'
p3735
tp3736
Rp3737
sg29
(lp3738
S'Routledge, Wayne'
p3739
ag3517
assg1
(g5
S']\xbf\x06\x00\x00\x00\x00\x00'
p3740
tp3741
Rp3742
(dp3743
g12
(lp3744
g3599
asg15
S'Tottenham Hotspur'
p3745
sg17
g1
(g5
S'\x06\x00\x00\x00\x00\x00\x00\x00'
p3746
tp3747
Rp3748
sg21
S'Reading'
p3749
sg23
(lp3750
I108
aI6
aI6
aI6
asg25
g1
(g5
S'l\x00\x00\x00\x00\x00\x00\x00'
p3751
tp3752
Rp3753
sg29
(lp3754
S'Dawson, Michael'
p3755
aS'Adebayor, Emmanuel'
p3756
aS'Dempsey, Clint'
p3757
assg1
(g5
S'^\xbf\x06\x00\x00\x00\x00\x00'
p3758
tp3759
Rp3760
(dp3761
g12
(lp3762
S'Berbatov, Dimitar'
p3763
aS'Kacaniklic, Alexander'
p3764
asg15
S'West Bromwich Albion'
p3765
sg17
g1
(g5
S'#\x00\x00\x00\x00\x00\x00\x00'
p3766
tp3767
Rp3768
sg21
S'Fulham'
p3769
sg23
(lp3770
I54
aI35
aI54
asg25
g1
(g5
S'6\x00\x00\x00\x00\x00\x00\x00'
p3771
tp3772
Rp3773
sg29
(lp3774
S'Lukaku, Romelu'
p3775
assg1
(g5
S'_\xbf\x06\x00\x00\x00\x00\x00'
p3776
tp3777
Rp3778
(dp3779
g12
(lp3780
g3565
asg15
S'West Ham United'
p3781
sg17
g1
(g5
S'\x15\x00\x00\x00\x00\x00\x00\x00'
p3782
tp3783
Rp3784
sg21
S'Norwich City'
p3785
sg23
(lp3786
I21
aI21
aI45
asg25
g1
(g5
S'-\x00\x00\x00\x00\x00\x00\x00'
p3787
tp3788
Rp3789
sg29
(lp3790
S'Noble, Mark'
p3791
aS"O'Brien, Joey"
p3792
assg1
(g5
S'`\xbf\x06\x00\x00\x00\x00\x00'
p3793
tp3794
Rp3795
(dp3796
g12
(lp3797
S'Hernandez, Javier'
p3798
ag3546
ag3798
ag3546
asg15
S'Wigan Athletic'
p3799
sg17
g1
(g5
S'o\x00\x00\x00\x00\x00\x00\x00'
p3800
tp3801
Rp3802
sg21
S'Manchester United'
p3803
sg23
(lp3804
I1
aI1
aI1
aI1
asg25
g1
(g5
S'\x01\x00\x00\x00\x00\x00\x00\x00'
p3805
tp3806
Rp3807
sg29
(lp3808
ssg1
(g5
S'a\xbf\x06\x00\x00\x00\x00\x00'
p3809
tp3810
Rp3811
(dp3812
g12
(lp3813
S'Milner, James'
p3814
ag3552
asg15
S'Arsenal'
p3815
sg17
g1
(g5
S'\x03\x00\x00\x00\x00\x00\x00\x00'
p3816
tp3817
Rp3818
sg21
g3558
sg23
(lp3819
I43
aI43
asg25
g1
(g5
S'+\x00\x00\x00\x00\x00\x00\x00'
p3820
tp3821
Rp3822
sg29
(lp3823
ssg1
(g5
S'b\xbf\x06\x00\x00\x00\x00\x00'
p3824
tp3825
Rp3826
(dp3827
g12
(lp3828
S'Lambert, Rickie'
p3829
asg15
S'Aston Villa'
p3830
sg17
g1
(g5
S'\x07\x00\x00\x00\x00\x00\x00\x00'
p3831
tp3832
Rp3833
sg21
S'Southampton'
p3834
sg23
(lp3835
I20
asg25
g1
(g5
S'\x14\x00\x00\x00\x00\x00\x00\x00'
p3836
tp3837
Rp3838
sg29
(lp3839
ssg1
(g5
S'c\xbf\x06\x00\x00\x00\x00\x00'
p3840
tp3841
Rp3842
(dp3843
g12
(lp3844
sg15
S'Everton'
p3845
sg17
g1
(g5
S'\x0b\x00\x00\x00\x00\x00\x00\x00'
p3846
tp3847
Rp3848
sg21
S'Swansea City'
p3849
sg23
(lp3850
sg25
g1
(g5
S'P\x00\x00\x00\x00\x00\x00\x00'
p3851
tp3852
Rp3853
sg29
(lp3854
ssg1
(g5
S'd\xbf\x06\x00\x00\x00\x00\x00'
p3855
tp3856
Rp3857
(dp3858
g12
(lp3859
S'Di Santo, Franco'
p3860
asg15
S'Fulham'
p3861
sg17
g1
(g5
S'6\x00\x00\x00\x00\x00\x00\x00'
p3862
tp3863
Rp3864
sg21
S'Wigan Athletic'
p3865
sg23
(lp3866
I54
aI111
asg25
g1
(g5
S'o\x00\x00\x00\x00\x00\x00\x00'
p3867
tp3868
Rp3869
sg29
(lp3870
S'Karagounis, Giorgos'
p3871
assg1
(g5
S'e\xbf\x06\x00\x00\x00\x00\x00'
p3872
tp3873
Rp3874
(dp3875
g12
(lp3876
S'Sturridge, Daniel'
p3877
asg15
S'Manchester United'
p3878
sg17
g1
(g5
S'\x01\x00\x00\x00\x00\x00\x00\x00'
p3879
tp3880
Rp3881
sg21
S'Liverpool'
p3882
sg23
(lp3883
I1
aI1
aI14
asg25
g1
(g5
S'\x0e\x00\x00\x00\x00\x00\x00\x00'
p3884
tp3885
Rp3886
sg29
(lp3887
S'van Persie, Robin'
p3888
aS'Vidic, Nemanja'
p3889
assg1
(g5
S'f\xbf\x06\x00\x00\x00\x00\x00'
p3890
tp3891
Rp3892
(dp3893
g12
(lp3894
sg15
S'Norwich City'
p3895
sg17
g1
(g5
S'-\x00\x00\x00\x00\x00\x00\x00'
p3896
tp3897
Rp3898
sg21
S'Newcastle United'
p3899
sg23
(lp3900
sg25
g1
(g5
S'\x04\x00\x00\x00\x00\x00\x00\x00'
p3901
tp3902
Rp3903
sg29
(lp3904
ssg1
(g5
S'g\xbf\x06\x00\x00\x00\x00\x00'
p3905
tp3906
Rp3907
(dp3908
g12
(lp3909
sg15
S'Queens Park Rangers'
p3910
sg17
g1
(g5
S'4\x00\x00\x00\x00\x00\x00\x00'
p3911
tp3912
Rp3913
sg21
S'Tottenham Hotspur'
p3914
sg23
(lp3915
sg25
g1
(g5
S'\x06\x00\x00\x00\x00\x00\x00\x00'
p3916
tp3917
Rp3918
sg29
(lp3919
ssg1
(g5
S'h\xbf\x06\x00\x00\x00\x00\x00'
p3920
tp3921
Rp3922
(dp3923
g12
(lp3924
S'Lukaku, Romelu'
p3925
ag3925
asg15
S'Reading'
p3926
sg17
g1
(g5
S'l\x00\x00\x00\x00\x00\x00\x00'
p3927
tp3928
Rp3929
sg21
S'West Bromwich Albion'
p3930
sg23
(lp3931
I35
aI35
aI108
aI108
aI108
asg25
g1
(g5
S'#\x00\x00\x00\x00\x00\x00\x00'
p3932
tp3933
Rp3934
sg29
(lp3935
S'Kebe, Jimmy'
p3936
aS'Le Fondre, Adam'
p3937
aS'Pogrebnyak, Pavel'
p3938
assg1
(g5
S'i\xbf\x06\x00\x00\x00\x00\x00'
p3939
tp3940
Rp3941
(dp3942
g12
(lp3943
S'Lampard, Frank'
p3944
aS'Hazard, Eden'
p3945
asg15
S'Stoke City'
p3946
sg17
g1
(g5
S'n\x00\x00\x00\x00\x00\x00\x00'
p3947
tp3948
Rp3949
sg21
S'Chelsea'
p3950
sg23
(lp3951
I110
aI110
aI8
aI8
asg25
g1
(g5
S'\x08\x00\x00\x00\x00\x00\x00\x00'
p3952
tp3953
Rp3954
sg29
(lp3955
S'Walters, Jonathan'
p3956
ag3956
assg1
(g5
S'j\xbf\x06\x00\x00\x00\x00\x00'
p3957
tp3958
Rp3959
(dp3960
g12
(lp3961
sg15
S'Sunderland'
p3962
sg17
g1
(g5
S'8\x00\x00\x00\x00\x00\x00\x00'
p3963
tp3964
Rp3965
sg21
S'West Ham United'
p3966
sg23
(lp3967
I56
aI56
aI56
asg25
g1
(g5
S'\x15\x00\x00\x00\x00\x00\x00\x00'
p3968
tp3969
Rp3970
sg29
(lp3971
S'Larsson, Sebastian'
p3972
aS'Johnson, Adam'
p3973
aS'McClean, James'
p3974
assg1
(g5
S'k\xbf\x06\x00\x00\x00\x00\x00'
p3975
tp3976
Rp3977
(dp3978
g12
(lp3979
S'Walcott, Theo'
p3980
asg15
S'Chelsea'
p3981
sg17
g1
(g5
S'\x08\x00\x00\x00\x00\x00\x00\x00'
p3982
tp3983
Rp3984
sg21
S'Arsenal'
p3985
sg23
(lp3986
I8
aI8
aI3
asg25
g1
(g5
S'\x03\x00\x00\x00\x00\x00\x00\x00'
p3987
tp3988
Rp3989
sg29
(lp3990
S'Mata, Juan'
p3991
ag3944
assg1
(g5
S'l\xbf\x06\x00\x00\x00\x00\x00'
p3992
tp3993
Rp3994
(dp3995
g12
(lp3996
S'Bennett, Ryan'
p3997
asg15
S'Liverpool'
p3998
sg17
g1
(g5
S'\x0e\x00\x00\x00\x00\x00\x00\x00'
p3999
tp4000
Rp4001
sg21
S'Norwich City'
p4002
sg23
(lp4003
I14
aI14
aI14
aI14
aI45
asg25
g1
(g5
S'-\x00\x00\x00\x00\x00\x00\x00'
p4004
tp4005
Rp4006
sg29
(lp4007
S'Henderson, Jordan'
p4008
aS'Suarez, Luis'
p4009
ag3877
aS'Gerrard, Steven'
p4010
assg1
(g5
S'm\xbf\x06\x00\x00\x00\x00\x00'
p4011
tp4012
Rp4013
(dp4014
g12
(lp4015
sg15
S'Manchester City'
p4016
sg17
g1
(g5
S'+\x00\x00\x00\x00\x00\x00\x00'
p4017
tp4018
Rp4019
sg21
S'Fulham'
p4020
sg23
(lp4021
I43
aI43
asg25
g1
(g5
S'6\x00\x00\x00\x00\x00\x00\x00'
p4022
tp4023
Rp4024
sg29
(lp4025
S'Silva, David'
p4026
ag4026
assg1
(g5
S'n\xbf\x06\x00\x00\x00\x00\x00'
p4027
tp4028
Rp4029
(dp4030
g12
(lp4031
g3937
ag3937
asg15
S'Newcastle United'
p4032
sg17
g1
(g5
S'\x04\x00\x00\x00\x00\x00\x00\x00'
p4033
tp4034
Rp4035
sg21
S'Reading'
p4036
sg23
(lp4037
I4
aI108
aI108
asg25
g1
(g5
S'l\x00\x00\x00\x00\x00\x00\x00'
p4038
tp4039
Rp4040
sg29
(lp4041
S'Cabaye, Yohan'
p4042
assg1
(g5
S'o\xbf\x06\x00\x00\x00\x00\x00'
p4043
tp4044
Rp4045
(dp4046
g12
(lp4047
sg15
S'Southampton'
p4048
sg17
g1
(g5
S'\x14\x00\x00\x00\x00\x00\x00\x00'
p4049
tp4050
Rp4051
sg21
S'Everton'
p4052
sg23
(lp4053
sg25
g1
(g5
S'\x0b\x00\x00\x00\x00\x00\x00\x00'
p4054
tp4055
Rp4056
sg29
(lp4057
ssg1
(g5
S'p\xbf\x06\x00\x00\x00\x00\x00'
p4058
tp4059
Rp4060
(dp4061
g12
(lp4062
S'Owen, Michael'
p4063
asg15
S'Swansea City'
p4064
sg17
g1
(g5
S'P\x00\x00\x00\x00\x00\x00\x00'
p4065
tp4066
Rp4067
sg21
S'Stoke City'
p4068
sg23
(lp4069
I80
aI80
aI80
aI110
asg25
g1
(g5
S'n\x00\x00\x00\x00\x00\x00\x00'
p4070
tp4071
Rp4072
sg29
(lp4073
S'Davies, Ben'
p4074
aS'De Guzman, Jonathan'
p4075
ag4075
assg1
(g5
S'q\xbf\x06\x00\x00\x00\x00\x00'
p4076
tp4077
Rp4078
(dp4079
g12
(lp4080
g3888
asg15
S'Tottenham Hotspur'
p4081
sg17
g1
(g5
S'\x06\x00\x00\x00\x00\x00\x00\x00'
p4082
tp4083
Rp4084
sg21
S'Manchester United'
p4085
sg23
(lp4086
I1
aI6
asg25
g1
(g5
S'\x01\x00\x00\x00\x00\x00\x00\x00'
p4087
tp4088
Rp4089
sg29
(lp4090
S'Dempsey, Clint'
p4091
assg1
(g5
S'r\xbf\x06\x00\x00\x00\x00\x00'
p4092
tp4093
Rp4094
(dp4095
g12
(lp4096
S'Benteke, Christian'
p4097
aS'Agbonlahor, Gabriel'
p4098
asg15
S'West Bromwich Albion'
p4099
sg17
g1
(g5
S'#\x00\x00\x00\x00\x00\x00\x00'
p4100
tp4101
Rp4102
sg21
S'Aston Villa'
p4103
sg23
(lp4104
I7
aI7
aI35
aI35
asg25
g1
(g5
S'\x07\x00\x00\x00\x00\x00\x00\x00'
p4105
tp4106
Rp4107
sg29
(lp4108
S'Brunt, Chris'
p4109
aS'Odemwingie, Peter'
p4110
assg1
(g5
S's\xbf\x06\x00\x00\x00\x00\x00'
p4111
tp4112
Rp4113
(dp4114
g12
(lp4115
S'Remy, Loic'
p4116
asg15
S'West Ham United'
p4117
sg17
g1
(g5
S'\x15\x00\x00\x00\x00\x00\x00\x00'
p4118
tp4119
Rp4120
sg21
S'Queens Park Rangers'
p4121
sg23
(lp4122
I52
aI21
asg25
g1
(g5
S'4\x00\x00\x00\x00\x00\x00\x00'
p4123
tp4124
Rp4125
sg29
(lp4126
S'Cole, Joe'
p4127
assg1
(g5
S't\xbf\x06\x00\x00\x00\x00\x00'
p4128
tp4129
Rp4130
(dp4131
g12
(lp4132
S'Vaughan, David'
p4133
aS'Gardner, Craig'
p4134
aS'Fletcher, Steven'
p4135
ag4135
asg15
S'Wigan Athletic'
p4136
sg17
g1
(g5
S'o\x00\x00\x00\x00\x00\x00\x00'
p4137
tp4138
Rp4139
sg21
S'Sunderland'
p4140
sg23
(lp4141
I56
aI56
aI56
aI56
aI111
asg25
g1
(g5
S'8\x00\x00\x00\x00\x00\x00\x00'
p4142
tp4143
Rp4144
sg29
(lp4145
S'Henriquez, Angelo'
p4146
assg1
(g5
S'u\xbf\x06\x00\x00\x00\x00\x00'
p4147
tp4148
Rp4149
(dp4150
g12
(lp4151
S'Suarez, Luis'
p4152
aS'Henderson, Jordan'
p4153
asg15
S'Arsenal'
p4154
sg17
g1
(g5
S'\x03\x00\x00\x00\x00\x00\x00\x00'
p4155
tp4156
Rp4157
sg21
S'Liverpool'
p4158
sg23
(lp4159
I14
aI14
aI3
aI3
asg25
g1
(g5
S'\x0e\x00\x00\x00\x00\x00\x00\x00'
p4160
tp4161
Rp4162
sg29
(lp4163
S'Giroud, Olivier'
p4164
aS'Walcott, Theo'
p4165
assg1
(g5
S'v\xbf\x06\x00\x00\x00\x00\x00'
p4166
tp4167
Rp4168
(dp4169
g12
(lp4170
S'Cisse, Papiss Demba'
p4171
aS'Cabaye, Yohan'
p4172
asg15
S'Aston Villa'
p4173
sg17
g1
(g5
S'\x07\x00\x00\x00\x00\x00\x00\x00'
p4174
tp4175
Rp4176
sg21
S'Newcastle United'
p4177
sg23
(lp4178
I4
aI4
aI7
asg25
g1
(g5
S'\x04\x00\x00\x00\x00\x00\x00\x00'
p4179
tp4180
Rp4181
sg29
(lp4182
S'Benteke, Christian'
p4183
assg1
(g5
S'w\xbf\x06\x00\x00\x00\x00\x00'
p4184
tp4185
Rp4186
(dp4187
g12
(lp4188
S'Rodriguez, Jay'
p4189
asg15
S'Manchester United'
p4190
sg17
g1
(g5
S'\x01\x00\x00\x00\x00\x00\x00\x00'
p4191
tp4192
Rp4193
sg21
S'Southampton'
p4194
sg23
(lp4195
I20
aI1
aI1
asg25
g1
(g5
S'\x14\x00\x00\x00\x00\x00\x00\x00'
p4196
tp4197
Rp4198
sg29
(lp4199
S'Rooney, Wayne'
p4200
ag4200
assg1
(g5
S'x\xbf\x06\x00\x00\x00\x00\x00'
p4201
tp4202
Rp4203
(dp4204
g12
(lp4205
S'Bale, Gareth'
p4206
asg15
S'Norwich City'
p4207
sg17
g1
(g5
S'-\x00\x00\x00\x00\x00\x00\x00'
p4208
tp4209
Rp4210
sg21
S'Tottenham Hotspur'
p4211
sg23
(lp4212
I45
aI6
asg25
g1
(g5
S'\x06\x00\x00\x00\x00\x00\x00\x00'
p4213
tp4214
Rp4215
sg29
(lp4216
S'Hoolahan, Wes'
p4217
assg1
(g5
S'y\xbf\x06\x00\x00\x00\x00\x00'
p4218
tp4219
Rp4220
(dp4221
g12
(lp4222
sg15
S'Queens Park Rangers'
p4223
sg17
g1
(g5
S'4\x00\x00\x00\x00\x00\x00\x00'
p4224
tp4225
Rp4226
sg21
S'Manchester City'
p4227
sg23
(lp4228
sg25
g1
(g5
S'+\x00\x00\x00\x00\x00\x00\x00'
p4229
tp4230
Rp4231
sg29
(lp4232
ssg1
(g5
S'z\xbf\x06\x00\x00\x00\x00\x00'
p4233
tp4234
Rp4235
(dp4236
g12
(lp4237
S'Mata, Juan'
p4238
aS'Lampard, Frank'
p4239
asg15
S'Reading'
p4240
sg17
g1
(g5
S'l\x00\x00\x00\x00\x00\x00\x00'
p4241
tp4242
Rp4243
sg21
S'Chelsea'
p4244
sg23
(lp4245
I8
aI8
aI108
aI108
asg25
g1
(g5
S'\x08\x00\x00\x00\x00\x00\x00\x00'
p4246
tp4247
Rp4248
sg29
(lp4249
S'Le Fondre, Adam'
p4250
ag4250
assg1
(g5
S'{\xbf\x06\x00\x00\x00\x00\x00'
p4251
tp4252
Rp4253
(dp4254
g12
(lp4255
S'McArthur, James'
p4256
aS'Di Santo, Franco'
p4257
asg15
S'Stoke City'
p4258
sg17
g1
(g5
S'n\x00\x00\x00\x00\x00\x00\x00'
p4259
tp4260
Rp4261
sg21
S'Wigan Athletic'
p4262
sg23
(lp4263
I110
aI110
aI111
aI111
asg25
g1
(g5
S'o\x00\x00\x00\x00\x00\x00\x00'
p4264
tp4265
Rp4266
sg29
(lp4267
S'Shawcross, Ryan'
p4268
aS'Crouch, Peter'
p4269
assg1
(g5
S'|\xbf\x06\x00\x00\x00\x00\x00'
p4270
tp4271
Rp4272
(dp4273
g12
(lp4274
sg15
S'Sunderland'
p4275
sg17
g1
(g5
S'8\x00\x00\x00\x00\x00\x00\x00'
p4276
tp4277
Rp4278
sg21
S'Swansea City'
p4279
sg23
(lp4280
sg25
g1
(g5
S'P\x00\x00\x00\x00\x00\x00\x00'
p4281
tp4282
Rp4283
sg29
(lp4284
ssg1
(g5
S'}\xbf\x06\x00\x00\x00\x00\x00'
p4285
tp4286
Rp4287
(dp4288
g12
(lp4289
S'Long, Shane'
p4290
asg15
S'Everton'
p4291
sg17
g1
(g5
S'\x0b\x00\x00\x00\x00\x00\x00\x00'
p4292
tp4293
Rp4294
sg21
S'West Bromwich Albion'
p4295
sg23
(lp4296
I11
aI11
aI35
asg25
g1
(g5
S'#\x00\x00\x00\x00\x00\x00\x00'
p4297
tp4298
Rp4299
sg29
(lp4300
S'Baines, Leighton'
p4301
ag4301
assg1
(g5
S'~\xbf\x06\x00\x00\x00\x00\x00'
p4302
tp4303
Rp4304
(dp4305
g12
(lp4306
S'Nolan, Kevin'
p4307
aS"O'Brien, Joey"
p4308
asg15
S'Fulham'
p4309
sg17
g1
(g5
S'6\x00\x00\x00\x00\x00\x00\x00'
p4310
tp4311
Rp4312
sg21
S'West Ham United'
p4313
sg23
(lp4314
I54
aI21
aI54
aI21
asg25
g1
(g5
S'\x15\x00\x00\x00\x00\x00\x00\x00'
p4315
tp4316
Rp4317
sg29
(lp4318
S'Berbatov, Dimitar'
p4319
aS'Rodallega, Hugo'
p4320
assg1
(g5
S'\x7f\xbf\x06\x00\x00\x00\x00\x00'
p4321
tp4322
Rp4323
(dp4324
g12
(lp4325
sg15
g4154
sg17
g1
(g5
S'\x03\x00\x00\x00\x00\x00\x00\x00'
p4326
tp4327
Rp4328
sg21
S'Stoke City'
p4329
sg23
(lp4330
I3
asg25
g1
(g5
S'n\x00\x00\x00\x00\x00\x00\x00'
p4331
tp4332
Rp4333
sg29
(lp4334
S'Podolski, Lukas'
p4335
assg1
(g5
S'\x80\xbf\x06\x00\x00\x00\x00\x00'
p4336
tp4337
Rp4338
(dp4339
g12
(lp4340
g4183
aS'Agbonlahor, Gabriel'
p4341
ag4183
asg15
g4291
sg17
g1
(g5
S'\x0b\x00\x00\x00\x00\x00\x00\x00'
p4342
tp4343
Rp4344
sg21
S'Aston Villa'
p4345
sg23
(lp4346
I7
aI11
aI7
aI7
aI11
aI11
asg25
g1
(g5
S'\x07\x00\x00\x00\x00\x00\x00\x00'
p4347
tp4348
Rp4349
sg29
(lp4350
S'Anichebe, Victor'
p4351
aS'Fellaini, Marouane'
p4352
ag4352
assg1
(g5
S'\x81\xbf\x06\x00\x00\x00\x00\x00'
p4353
tp4354
Rp4355
(dp4356
g12
(lp4357
g4200
asg15
g4309
sg17
g1
(g5
S'6\x00\x00\x00\x00\x00\x00\x00'
p4358
tp4359
Rp4360
sg21
S'Manchester United'
p4361
sg23
(lp4362
I1
asg25
g1
(g5
S'\x01\x00\x00\x00\x00\x00\x00\x00'
p4363
tp4364
Rp4365
sg29
(lp4366
ssg1
(g5
S'\x82\xbf\x06\x00\x00\x00\x00\x00'
p4367
tp4368
Rp4369
(dp4370
g12
(lp4371
S'Sturridge, Daniel'
p4372
aS'Gerrard, Steven'
p4373
asg15
S'Manchester City'
p4374
sg17
g1
(g5
S'+\x00\x00\x00\x00\x00\x00\x00'
p4375
tp4376
Rp4377
sg21
g4158
sg23
(lp4378
I43
aI14
aI14
aI43
asg25
g1
(g5
S'\x0e\x00\x00\x00\x00\x00\x00\x00'
p4379
tp4380
Rp4381
sg29
(lp4382
S'Dzeko, Edin'
p4383
aS'Aguero, Sergio'
p4384
assg1
(g5
S'\x83\xbf\x06\x00\x00\x00\x00\x00'
p4385
tp4386
Rp4387
(dp4388
g12
(lp4389
g4239
ag4238
asg15
S'Newcastle United'
p4390
sg17
g1
(g5
S'\x04\x00\x00\x00\x00\x00\x00\x00'
p4391
tp4392
Rp4393
sg21
g4244
sg23
(lp4394
I4
aI8
aI8
aI4
aI4
asg25
g1
(g5
S'\x08\x00\x00\x00\x00\x00\x00\x00'
p4395
tp4396
Rp4397
sg29
(lp4398
S'Gutierrez, Jonas'
p4399
aS'Sissoko, Moussa'
p4400
ag4400
assg1
(g5
S'\x84\xbf\x06\x00\x00\x00\x00\x00'
p4401
tp4402
Rp4403
(dp4404
g12
(lp4405
sg15
g4223
sg17
g1
(g5
S'4\x00\x00\x00\x00\x00\x00\x00'
p4406
tp4407
Rp4408
sg21
S'Norwich City'
p4409
sg23
(lp4410
sg25
g1
(g5
S'-\x00\x00\x00\x00\x00\x00\x00'
p4411
tp4412
Rp4413
sg29
(lp4414
ssg1
(g5
S'\x85\xbf\x06\x00\x00\x00\x00\x00'
p4415
tp4416
Rp4417
(dp4418
g12
(lp4419
S'Gardner, Craig'
p4420
asg15
g4240
sg17
g1
(g5
S'l\x00\x00\x00\x00\x00\x00\x00'
p4421
tp4422
Rp4423
sg21
S'Sunderland'
p4424
sg23
(lp4425
I108
aI56
aI108
asg25
g1
(g5
S'8\x00\x00\x00\x00\x00\x00\x00'
p4426
tp4427
Rp4428
sg29
(lp4429
S'Kebe, Jimmy'
p4430
ag4430
assg1
(g5
S'\x86\xbf\x06\x00\x00\x00\x00\x00'
p4431
tp4432
Rp4433
(dp4434
g12
(lp4435
g4206
asg15
S'West Bromwich Albion'
p4436
sg17
g1
(g5
S'#\x00\x00\x00\x00\x00\x00\x00'
p4437
tp4438
Rp4439
sg21
g4211
sg23
(lp4440
I6
asg25
g1
(g5
S'\x06\x00\x00\x00\x00\x00\x00\x00'
p4441
tp4442
Rp4443
sg29
(lp4444
ssg1
(g5
S'\x87\xbf\x06\x00\x00\x00\x00\x00'
p4445
tp4446
Rp4447
(dp4448
g12
(lp4449
sg15
S'West Ham United'
p4450
sg17
g1
(g5
S'\x15\x00\x00\x00\x00\x00\x00\x00'
p4451
tp4452
Rp4453
sg21
g4279
sg23
(lp4454
I21
asg25
g1
(g5
S'P\x00\x00\x00\x00\x00\x00\x00'
p4455
tp4456
Rp4457
sg29
(lp4458
S'Carroll, Andy'
p4459
assg1
(g5
S'\x88\xbf\x06\x00\x00\x00\x00\x00'
p4460
tp4461
Rp4462
(dp4463
g12
(lp4464
S'Lambert, Rickie'
p4465
aS'Schneiderlin, Morgan'
p4466
asg15
S'Wigan Athletic'
p4467
sg17
g1
(g5
S'o\x00\x00\x00\x00\x00\x00\x00'
p4468
tp4469
Rp4470
sg21
g4194
sg23
(lp4471
I111
aI20
aI20
aI111
asg25
g1
(g5
S'\x14\x00\x00\x00\x00\x00\x00\x00'
p4472
tp4473
Rp4474
sg29
(lp4475
S'Caldwell, Gary'
p4476
aS'Maloney, Shaun'
p4477
assg1
(g5
S'\x89\xbf\x06\x00\x00\x00\x00\x00'
p4478
tp4479
Rp4480
(dp4481
g12
(lp4482
sg15
S'Aston Villa'
p4483
sg17
g1
(g5
S'\x07\x00\x00\x00\x00\x00\x00\x00'
p4484
tp4485
Rp4486
sg21
S'West Ham United'
p4487
sg23
(lp4488
I7
aI7
aI7
asg25
g1
(g5
S'\x15\x00\x00\x00\x00\x00\x00\x00'
p4489
tp4490
Rp4491
sg29
(lp4492
S'Benteke, Christian'
p4493
aS"N'Zogbia, Charles"
p4494
aS'Westwood, Ashley'
p4495
assg1
(g5
S'\x8a\xbf\x06\x00\x00\x00\x00\x00'
p4496
tp4497
Rp4498
(dp4499
g12
(lp4500
g4477
asg15
S'Chelsea'
p4501
sg17
g1
(g5
S'\x08\x00\x00\x00\x00\x00\x00\x00'
p4502
tp4503
Rp4504
sg21
S'Wigan Athletic'
p4505
sg23
(lp4506
I8
aI8
aI111
aI8
aI8
asg25
g1
(g5
S'o\x00\x00\x00\x00\x00\x00\x00'
p4507
tp4508
Rp4509
sg29
(lp4510
S'Santos do Nascimento, Ramires'
p4511
aS'Hazard, Eden'
p4512
aS'Lampard, Frank'
p4513
aS'Marin, Marko'
p4514
assg1
(g5
S'\x8b\xbf\x06\x00\x00\x00\x00\x00'
p4515
tp4516
Rp4517
(dp4518
g12
(lp4519
S'McAuley, Gareth'
p4520
aS'Lukaku, Romelu'
p4521
asg15
S'Liverpool'
p4522
sg17
g1
(g5
S'\x0e\x00\x00\x00\x00\x00\x00\x00'
p4523
tp4524
Rp4525
sg21
S'West Bromwich Albion'
p4526
sg23
(lp4527
I35
aI35
asg25
g1
(g5
S'#\x00\x00\x00\x00\x00\x00\x00'
p4528
tp4529
Rp4530
sg29
(lp4531
ssg1
(g5
S'\x8c\xbf\x06\x00\x00\x00\x00\x00'
p4532
tp4533
Rp4534
(dp4535
g12
(lp4536
sg15
S'Manchester United'
p4537
sg17
g1
(g5
S'\x01\x00\x00\x00\x00\x00\x00\x00'
p4538
tp4539
Rp4540
sg21
S'Everton'
p4541
sg23
(lp4542
I1
aI1
asg25
g1
(g5
S'\x0b\x00\x00\x00\x00\x00\x00\x00'
p4543
tp4544
Rp4545
sg29
(lp4546
S'Giggs, Ryan'
p4547
aS'van Persie, Robin'
p4548
assg1
(g5
S'\x8d\xbf\x06\x00\x00\x00\x00\x00'
p4549
tp4550
Rp4551
(dp4552
g12
(lp4553
sg15
S'Norwich City'
p4554
sg17
g1
(g5
S'-\x00\x00\x00\x00\x00\x00\x00'
p4555
tp4556
Rp4557
sg21
S'Fulham'
p4558
sg23
(lp4559
sg25
g1
(g5
S'6\x00\x00\x00\x00\x00\x00\x00'
p4560
tp4561
Rp4562
sg29
(lp4563
ssg1
(g5
S'\x8e\xbf\x06\x00\x00\x00\x00\x00'
p4564
tp4565
Rp4566
(dp4567
g12
(lp4568
S'Dzeko, Edin'
p4569
aS'Barry, Gareth'
p4570
asg15
S'Southampton'
p4571
sg17
g1
(g5
S'\x14\x00\x00\x00\x00\x00\x00\x00'
p4572
tp4573
Rp4574
sg21
S'Manchester City'
p4575
sg23
(lp4576
I20
aI20
aI43
aI43
asg25
g1
(g5
S'+\x00\x00\x00\x00\x00\x00\x00'
p4577
tp4578
Rp4579
sg29
(lp4580
S'Puncheon, Jason'
p4581
aS'Davis, Steven'
p4582
assg1
(g5
S'\x8f\xbf\x06\x00\x00\x00\x00\x00'
p4583
tp4584
Rp4585
(dp4586
g12
(lp4587
S'Mariappa, Adrian'
p4588
asg15
S'Stoke City'
p4589
sg17
g1
(g5
S'n\x00\x00\x00\x00\x00\x00\x00'
p4590
tp4591
Rp4592
sg21
S'Reading'
p4593
sg23
(lp4594
I110
aI110
aI108
asg25
g1
(g5
S'l\x00\x00\x00\x00\x00\x00\x00'
p4595
tp4596
Rp4597
sg29
(lp4598
S'Huth, Robert'
p4599
aS'Jerome, Cameron'
p4600
assg1
(g5
S'\x90\xbf\x06\x00\x00\x00\x00\x00'
p4601
tp4602
Rp4603
(dp4604
g12
(lp4605
S'Cazorla, Santiago'
p4606
asg15
S'Sunderland'
p4607
sg17
g1
(g5
S'8\x00\x00\x00\x00\x00\x00\x00'
p4608
tp4609
Rp4610
sg21
S'Arsenal'
p4611
sg23
(lp4612
I3
asg25
g1
(g5
S'\x03\x00\x00\x00\x00\x00\x00\x00'
p4613
tp4614
Rp4615
sg29
(lp4616
ssg1
(g5
S'\x91\xbf\x06\x00\x00\x00\x00\x00'
p4617
tp4618
Rp4619
(dp4620
g12
(lp4621
S'Zamora, Bobby'
p4622
asg15
S'Swansea City'
p4623
sg17
g1
(g5
S'P\x00\x00\x00\x00\x00\x00\x00'
p4624
tp4625
Rp4626
sg21
S'Queens Park Rangers'
p4627
sg23
(lp4628
I80
aI80
aI52
aI80
aI80
asg25
g1
(g5
S'4\x00\x00\x00\x00\x00\x00\x00'
p4629
tp4630
Rp4631
sg29
(lp4632
S'Perez Cuesta, Miguel'
p4633
aS'Rangel, Angel'
p4634
aS'Hernandez, Pablo'
p4635
ag4633
assg1
(g5
S'\x92\xbf\x06\x00\x00\x00\x00\x00'
p4636
tp4637
Rp4638
(dp4639
g12
(lp4640
S'Gouffran, Yoan'
p4641
asg15
S'Tottenham Hotspur'
p4642
sg17
g1
(g5
S'\x06\x00\x00\x00\x00\x00\x00\x00'
p4643
tp4644
Rp4645
sg21
S'Newcastle United'
p4646
sg23
(lp4647
I6
aI4
aI6
asg25
g1
(g5
S'\x04\x00\x00\x00\x00\x00\x00\x00'
p4648
tp4649
Rp4650
sg29
(lp4651
S'Bale, Gareth'
p4652
ag4652
assg1
(g5
S'\x93\xbf\x06\x00\x00\x00\x00\x00'
p4653
tp4654
Rp4655
(dp4656
g12
(lp4657
S'Weimann, Andreas'
p4658
asg15
S'Arsenal'
p4659
sg17
g1
(g5
S'\x03\x00\x00\x00\x00\x00\x00\x00'
p4660
tp4661
Rp4662
sg21
S'Aston Villa'
p4663
sg23
(lp4664
I3
aI7
aI3
asg25
g1
(g5
S'\x07\x00\x00\x00\x00\x00\x00\x00'
p4665
tp4666
Rp4667
sg29
(lp4668
g4606
ag4606
assg1
(g5
S'\x94\xbf\x06\x00\x00\x00\x00\x00'
p4669
tp4670
Rp4671
(dp4672
g12
(lp4673
sg15
S'Fulham'
p4674
sg17
g1
(g5
S'6\x00\x00\x00\x00\x00\x00\x00'
p4675
tp4676
Rp4677
sg21
S'Stoke City'
p4678
sg23
(lp4679
I54
asg25
g1
(g5
S'n\x00\x00\x00\x00\x00\x00\x00'
p4680
tp4681
Rp4682
sg29
(lp4683
S'Berbatov, Dimitar'
p4684
assg1
(g5
S'\x95\xbf\x06\x00\x00\x00\x00\x00'
p4685
tp4686
Rp4687
(dp4688
g12
(lp4689
sg15
g4522
sg17
g1
(g5
S'\x0e\x00\x00\x00\x00\x00\x00\x00'
p4690
tp4691
Rp4692
sg21
S'Swansea City'
p4693
sg23
(lp4694
I14
aI14
aI14
aI14
aI14
asg25
g1
(g5
S'P\x00\x00\x00\x00\x00\x00\x00'
p4695
tp4696
Rp4697
sg29
(lp4698
S'Gerrard, Steven'
p4699
aS'Coutinho, Philippe'
p4700
aS'Enrique Sanchez Diaz, Jose'
p4701
aS'Suarez, Luis'
p4702
aS'Sturridge, Daniel'
p4703
assg1
(g5
S'\x96\xbf\x06\x00\x00\x00\x00\x00'
p4704
tp4705
Rp4706
(dp4707
g12
(lp4708
sg15
S'Manchester City'
p4709
sg17
g1
(g5
S'+\x00\x00\x00\x00\x00\x00\x00'
p4710
tp4711
Rp4712
sg21
S'Chelsea'
p4713
sg23
(lp4714
I43
aI43
asg25
g1
(g5
S'\x08\x00\x00\x00\x00\x00\x00\x00'
p4715
tp4716
Rp4717
sg29
(lp4718
S'Toure, Gnegneri Yaya'
p4719
aS'Tevez, Carlos'
p4720
assg1
(g5
S'\x97\xbf\x06\x00\x00\x00\x00\x00'
p4721
tp4722
Rp4723
(dp4724
g12
(lp4725
g4466
ag4465
aS'Hooiveld, Jos'
p4726
asg15
S'Newcastle United'
p4727
sg17
g1
(g5
S'\x04\x00\x00\x00\x00\x00\x00\x00'
p4728
tp4729
Rp4730
sg21
S'Southampton'
p4731
sg23
(lp4732
I20
aI4
aI4
aI20
aI4
aI20
asg25
g1
(g5
S'\x14\x00\x00\x00\x00\x00\x00\x00'
p4733
tp4734
Rp4735
sg29
(lp4736
S'Sissoko, Moussa'
p4737
aS'Cisse, Papiss Demba'
p4738
aS'Cabaye, Yohan'
p4739
assg1
(g5
S'\x98\xbf\x06\x00\x00\x00\x00\x00'
p4740
tp4741
Rp4742
(dp4743
g12
(lp4744
S'Osman, Leon'
p4745
asg15
g4554
sg17
g1
(g5
S'-\x00\x00\x00\x00\x00\x00\x00'
p4746
tp4747
Rp4748
sg21
g4541
sg23
(lp4749
I11
aI45
aI45
asg25
g1
(g5
S'\x0b\x00\x00\x00\x00\x00\x00\x00'
p4750
tp4751
Rp4752
sg29
(lp4753
S'Kamara, Kei'
p4754
aS'Holt, Grant'
p4755
assg1
(g5
S'\x99\xbf\x06\x00\x00\x00\x00\x00'
p4756
tp4757
Rp4758
(dp4759
g12
(lp4760
S'da Silva, Rafael Pereira'
p4761
ag4547
asg15
S'Queens Park Rangers'
p4762
sg17
g1
(g5
S'4\x00\x00\x00\x00\x00\x00\x00'
p4763
tp4764
Rp4765
sg21
S'Manchester United'
p4766
sg23
(lp4767
I1
aI1
asg25
g1
(g5
S'\x01\x00\x00\x00\x00\x00\x00\x00'
p4768
tp4769
Rp4770
sg29
(lp4771
ssg1
(g5
S'\x9a\xbf\x06\x00\x00\x00\x00\x00'
p4772
tp4773
Rp4774
(dp4775
g12
(lp4776
S'Kone, Arouna'
p4777
ag4777
aS'Figueroa, Maynor'
p4778
asg15
S'Reading'
p4779
sg17
g1
(g5
S'l\x00\x00\x00\x00\x00\x00\x00'
p4780
tp4781
Rp4782
sg21
g4505
sg23
(lp4783
I111
aI111
aI111
asg25
g1
(g5
S'o\x00\x00\x00\x00\x00\x00\x00'
p4784
tp4785
Rp4786
sg29
(lp4787
ssg1
(g5
S'\x9b\xbf\x06\x00\x00\x00\x00\x00'
p4788
tp4789
Rp4790
(dp4791
g12
(lp4792
S'Sessegnon, Stephane'
p4793
asg15
S'West Bromwich Albion'
p4794
sg17
g1
(g5
S'#\x00\x00\x00\x00\x00\x00\x00'
p4795
tp4796
Rp4797
sg21
S'Sunderland'
p4798
sg23
(lp4799
I35
aI35
aI56
asg25
g1
(g5
S'8\x00\x00\x00\x00\x00\x00\x00'
p4800
tp4801
Rp4802
sg29
(lp4803
S'Lukaku, Romelu'
p4804
ag4804
assg1
(g5
S'\x9c\xbf\x06\x00\x00\x00\x00\x00'
p4805
tp4806
Rp4807
(dp4808
g12
(lp4809
S'Bale, Gareth'
p4810
aS'Sigurdsson, Gylfi'
p4811
ag4810
asg15
S'West Ham United'
p4812
sg17
g1
(g5
S'\x15\x00\x00\x00\x00\x00\x00\x00'
p4813
tp4814
Rp4815
sg21
S'Tottenham Hotspur'
p4816
sg23
(lp4817
I6
aI21
aI21
aI6
aI6
asg25
g1
(g5
S'\x06\x00\x00\x00\x00\x00\x00\x00'
p4818
tp4819
Rp4820
sg29
(lp4821
S'Carroll, Andy'
p4822
aS'Cole, Joe'
p4823
assg1
(g5
S'\x9d\xbf\x06\x00\x00\x00\x00\x00'
p4824
tp4825
Rp4826
(dp4827
g12
(lp4828
S'Tevez, Carlos'
p4829
asg15
S'Aston Villa'
p4830
sg17
g1
(g5
S'\x07\x00\x00\x00\x00\x00\x00\x00'
p4831
tp4832
Rp4833
sg21
S'Manchester City'
p4834
sg23
(lp4835
I43
asg25
g1
(g5
S'+\x00\x00\x00\x00\x00\x00\x00'
p4836
tp4837
Rp4838
sg29
(lp4839
ssg1
(g5
S'\x9e\xbf\x06\x00\x00\x00\x00\x00'
p4840
tp4841
Rp4842
(dp4843
g12
(lp4844
sg15
S'Chelsea'
p4845
sg17
g1
(g5
S'\x08\x00\x00\x00\x00\x00\x00\x00'
p4846
tp4847
Rp4848
sg21
S'West Bromwich Albion'
p4849
sg23
(lp4850
I8
asg25
g1
(g5
S'#\x00\x00\x00\x00\x00\x00\x00'
p4851
tp4852
Rp4853
sg29
(lp4854
S'Ba, Demba'
p4855
assg1
(g5
S'\x9f\xbf\x06\x00\x00\x00\x00\x00'
p4856
tp4857
Rp4858
(dp4859
g12
(lp4860
S'Robson-Kanu, Hal'
p4861
asg15
S'Everton'
p4862
sg17
g1
(g5
S'\x0b\x00\x00\x00\x00\x00\x00\x00'
p4863
tp4864
Rp4865
sg21
S'Reading'
p4866
sg23
(lp4867
I11
aI11
aI11
aI108
asg25
g1
(g5
S'l\x00\x00\x00\x00\x00\x00\x00'
p4868
tp4869
Rp4870
sg29
(lp4871
S'Fellaini, Marouane'
p4872
aS'Pienaar, Steven'
p4873
aS'Mirallas, Kevin'
p4874
assg1
(g5
S'\xa0\xbf\x06\x00\x00\x00\x00\x00'
p4875
tp4876
Rp4877
(dp4878
g12
(lp4879
sg15
S'Manchester United'
p4880
sg17
g1
(g5
S'\x01\x00\x00\x00\x00\x00\x00\x00'
p4881
tp4882
Rp4883
sg21
S'Norwich City'
p4884
sg23
(lp4885
I1
aI1
aI1
aI1
asg25
g1
(g5
S'-\x00\x00\x00\x00\x00\x00\x00'
p4886
tp4887
Rp4888
sg29
(lp4889
S'Kagawa, Shinji'
p4890
ag4890
ag4890
aS'Rooney, Wayne'
p4891
assg1
(g5
S'\xa1\xbf\x06\x00\x00\x00\x00\x00'
p4892
tp4893
Rp4894
(dp4895
g12
(lp4896
S'Remy, Loic'
p4897
aS'Bothroyd, Jay'
p4898
asg15
S'Southampton'
p4899
sg17
g1
(g5
S'\x14\x00\x00\x00\x00\x00\x00\x00'
p4900
tp4901
Rp4902
sg21
S'Queens Park Rangers'
p4903
sg23
(lp4904
I52
aI20
aI52
asg25
g1
(g5
S'4\x00\x00\x00\x00\x00\x00\x00'
p4905
tp4906
Rp4907
sg29
(lp4908
S'Ramirez, Gaston'
p4909
assg1
(g5
S'\xa2\xbf\x06\x00\x00\x00\x00\x00'
p4910
tp4911
Rp4912
(dp4913
g12
(lp4914
S'Collison, Jack'
p4915
asg15
S'Stoke City'
p4916
sg17
g1
(g5
S'n\x00\x00\x00\x00\x00\x00\x00'
p4917
tp4918
Rp4919
sg21
S'West Ham United'
p4920
sg23
(lp4921
I21
asg25
g1
(g5
S'\x15\x00\x00\x00\x00\x00\x00\x00'
p4922
tp4923
Rp4924
sg29
(lp4925
ssg1
(g5
S'\xa3\xbf\x06\x00\x00\x00\x00\x00'
p4926
tp4927
Rp4928
(dp4929
g12
(lp4930
S'Berbatov, Dimitar'
p4931
aS'Riether, Sascha'
p4932
asg15
S'Sunderland'
p4933
sg17
g1
(g5
S'8\x00\x00\x00\x00\x00\x00\x00'
p4934
tp4935
Rp4936
sg21
S'Fulham'
p4937
sg23
(lp4938
I54
aI54
aI56
aI56
asg25
g1
(g5
S'6\x00\x00\x00\x00\x00\x00\x00'
p4939
tp4940
Rp4941
sg29
(lp4942
S'Gardner, Craig'
p4943
ag4793
assg1
(g5
S'\xa4\xbf\x06\x00\x00\x00\x00\x00'
p4944
tp4945
Rp4946
(dp4947
g12
(lp4948
sg15
S'Swansea City'
p4949
sg17
g1
(g5
S'P\x00\x00\x00\x00\x00\x00\x00'
p4950
tp4951
Rp4952
sg21
S'Newcastle United'
p4953
sg23
(lp4954
I80
asg25
g1
(g5
S'\x04\x00\x00\x00\x00\x00\x00\x00'
p4955
tp4956
Rp4957
sg29
(lp4958
S'Moore, Luke'
p4959
assg1
(g5
S'\xa5\xbf\x06\x00\x00\x00\x00\x00'
p4960
tp4961
Rp4962
(dp4963
g12
(lp4964
S'Mertesacker, Per'
p4965
asg15
S'Tottenham Hotspur'
p4966
sg17
g1
(g5
S'\x06\x00\x00\x00\x00\x00\x00\x00'
p4967
tp4968
Rp4969
sg21
S'Arsenal'
p4970
sg23
(lp4971
I6
aI6
aI3
asg25
g1
(g5
S'\x03\x00\x00\x00\x00\x00\x00\x00'
p4972
tp4973
Rp4974
sg29
(lp4975
g4810
aS'Lennon, Aaron'
p4976
assg1
(g5
S'\xa6\xbf\x06\x00\x00\x00\x00\x00'
p4977
tp4978
Rp4979
(dp4980
g12
(lp4981
S'Downing, Stewart'
p4982
aS'Suarez, Luis'
p4983
ag4983
ag4983
asg15
S'Wigan Athletic'
p4984
sg17
g1
(g5
S'o\x00\x00\x00\x00\x00\x00\x00'
p4985
tp4986
Rp4987
sg21
S'Liverpool'
p4988
sg23
(lp4989
I14
aI14
aI14
aI14
asg25
g1
(g5
S'\x0e\x00\x00\x00\x00\x00\x00\x00'
p4990
tp4991
Rp4992
sg29
(lp4993
ssg1
(g5
S'\xa7\xbf\x06\x00\x00\x00\x00\x00'
p4994
tp4995
Rp4996
(dp4997
g12
(lp4998
sg15
S'Arsenal'
p4999
sg17
g1
(g5
S'\x03\x00\x00\x00\x00\x00\x00\x00'
p5000
tp5001
Rp5002
sg21
S'Everton'
p5003
sg23
(lp5004
sg25
g1
(g5
S'\x0b\x00\x00\x00\x00\x00\x00\x00'
p5005
tp5006
Rp5007
sg29
(lp5008
ssg1
(g5
S'\xa8\xbf\x06\x00\x00\x00\x00\x00'
p5009
tp5010
Rp5011
(dp5012
g12
(lp5013
S'Luiz Moreira Marinho, David'
p5014
aS'Terry, John'
p5015
ag5015
asg15
S'Fulham'
p5016
sg17
g1
(g5
S'6\x00\x00\x00\x00\x00\x00\x00'
p5017
tp5018
Rp5019
sg21
S'Chelsea'
p5020
sg23
(lp5021
I8
aI8
aI8
asg25
g1
(g5
S'\x08\x00\x00\x00\x00\x00\x00\x00'
p5022
tp5023
Rp5024
sg29
(lp5025
ssg1
(g5
S'\xa9\xbf\x06\x00\x00\x00\x00\x00'
p5026
tp5027
Rp5028
(dp5029
g12
(lp5030
S'Vertonghen, Jan'
p5031
ag5031
asg15
S'Liverpool'
p5032
sg17
g1
(g5
S'\x0e\x00\x00\x00\x00\x00\x00\x00'
p5033
tp5034
Rp5035
sg21
g4816
sg23
(lp5036
I14
aI6
aI6
aI14
aI14
asg25
g1
(g5
S'\x06\x00\x00\x00\x00\x00\x00\x00'
p5037
tp5038
Rp5039
sg29
(lp5040
g4983
ag4982
aS'Gerrard, Steven'
p5041
assg1
(g5
S'\xaa\xbf\x06\x00\x00\x00\x00\x00'
p5042
tp5043
Rp5044
(dp5045
g12
(lp5046
sg15
S'Manchester City'
p5047
sg17
g1
(g5
S'+\x00\x00\x00\x00\x00\x00\x00'
p5048
tp5049
Rp5050
sg21
S'Wigan Athletic'
p5051
sg23
(lp5052
I43
asg25
g1
(g5
S'o\x00\x00\x00\x00\x00\x00\x00'
p5053
tp5054
Rp5055
sg29
(lp5056
g4829
assg1
(g5
S'\xab\xbf\x06\x00\x00\x00\x00\x00'
p5057
tp5058
Rp5059
(dp5060
g12
(lp5061
S'Walters, Jonathan'
p5062
asg15
S'Newcastle United'
p5063
sg17
g1
(g5
S'\x04\x00\x00\x00\x00\x00\x00\x00'
p5064
tp5065
Rp5066
sg21
S'Stoke City'
p5067
sg23
(lp5068
I110
aI4
aI4
asg25
g1
(g5
S'n\x00\x00\x00\x00\x00\x00\x00'
p5069
tp5070
Rp5071
sg29
(lp5072
S'Cabaye, Yohan'
p5073
aS'Cisse, Papiss Demba'
p5074
assg1
(g5
S'\xac\xbf\x06\x00\x00\x00\x00\x00'
p5075
tp5076
Rp5077
(dp5078
g12
(lp5079
sg15
S'Norwich City'
p5080
sg17
g1
(g5
S'-\x00\x00\x00\x00\x00\x00\x00'
p5081
tp5082
Rp5083
sg21
S'Southampton'
p5084
sg23
(lp5085
sg25
g1
(g5
S'\x14\x00\x00\x00\x00\x00\x00\x00'
p5086
tp5087
Rp5088
sg29
(lp5089
ssg1
(g5
S'\xad\xbf\x06\x00\x00\x00\x00\x00'
p5090
tp5091
Rp5092
(dp5093
g12
(lp5094
S'Fletcher, Steven'
p5095
asg15
S'Queens Park Rangers'
p5096
sg17
g1
(g5
S'4\x00\x00\x00\x00\x00\x00\x00'
p5097
tp5098
Rp5099
sg21
g4798
sg23
(lp5100
I56
aI52
aI52
aI52
asg25
g1
(g5
S'8\x00\x00\x00\x00\x00\x00\x00'
p5101
tp5102
Rp5103
sg29
(lp5104
g4897
aS'Townsend, Andros'
p5105
aS'Jenas, Jermaine'
p5106
assg1
(g5
S'\xae\xbf\x06\x00\x00\x00\x00\x00'
p5107
tp5108
Rp5109
(dp5110
g12
(lp5111
S'Baker, Nathan'
p5112
aS'Benteke, Christian'
p5113
aS'Agbonlahor, Gabriel'
p5114
asg15
S'Reading'
p5115
sg17
g1
(g5
S'l\x00\x00\x00\x00\x00\x00\x00'
p5116
tp5117
Rp5118
sg21
S'Aston Villa'
p5119
sg23
(lp5120
I7
aI7
aI7
asg25
g1
(g5
S'\x07\x00\x00\x00\x00\x00\x00\x00'
p5121
tp5122
Rp5123
sg29
(lp5124
ssg1
(g5
S'\xaf\xbf\x06\x00\x00\x00\x00\x00'
p5125
tp5126
Rp5127
(dp5128
g12
(lp5129
S'Moore, Luke'
p5130
aS'De Guzman, Jonathan'
p5131
asg15
S'West Bromwich Albion'
p5132
sg17
g1
(g5
S'#\x00\x00\x00\x00\x00\x00\x00'
p5133
tp5134
Rp5135
sg21
S'Swansea City'
p5136
sg23
(lp5137
I80
aI35
aI80
asg25
g1
(g5
S'P\x00\x00\x00\x00\x00\x00\x00'
p5138
tp5139
Rp5140
sg29
(lp5141
S'Lukaku, Romelu'
p5142
assg1
(g5
S'\xb0\xbf\x06\x00\x00\x00\x00\x00'
p5143
tp5144
Rp5145
(dp5146
g12
(lp5147
S'Valencia, Luis Antonio'
p5148
aS'van Persie, Robin'
p5149
asg15
S'West Ham United'
p5150
sg17
g1
(g5
S'\x15\x00\x00\x00\x00\x00\x00\x00'
p5151
tp5152
Rp5153
sg21
S'Manchester United'
p5154
sg23
(lp5155
I21
aI1
aI21
aI1
asg25
g1
(g5
S'\x01\x00\x00\x00\x00\x00\x00\x00'
p5156
tp5157
Rp5158
sg29
(lp5159
S'Vaz Te, Ricardo'
p5160
aS'Diame, Mohamed'
p5161
assg1
(g5
S'\xb1\xbf\x06\x00\x00\x00\x00\x00'
p5162
tp5163
Rp5164
(dp5165
g12
(lp5166
g5106
ag5105
asg15
S'Aston Villa'
p5167
sg17
g1
(g5
S'\x07\x00\x00\x00\x00\x00\x00\x00'
p5168
tp5169
Rp5170
sg21
S'Queens Park Rangers'
p5171
sg23
(lp5172
I52
aI7
aI7
aI52
aI7
asg25
g1
(g5
S'4\x00\x00\x00\x00\x00\x00\x00'
p5173
tp5174
Rp5175
sg29
(lp5176
g5114
aS'Weimann, Andreas'
p5177
ag5113
assg1
(g5
S'\xb2\xbf\x06\x00\x00\x00\x00\x00'
p5178
tp5179
Rp5180
(dp5181
g12
(lp5182
sg15
S'Chelsea'
p5183
sg17
g1
(g5
S'\x08\x00\x00\x00\x00\x00\x00\x00'
p5184
tp5185
Rp5186
sg21
S'West Ham United'
p5187
sg23
(lp5188
I8
aI8
asg25
g1
(g5
S'\x15\x00\x00\x00\x00\x00\x00\x00'
p5189
tp5190
Rp5191
sg29
(lp5192
S'Lampard, Frank'
p5193
aS'Hazard, Eden'
p5194
assg1
(g5
S'\xb3\xbf\x06\x00\x00\x00\x00\x00'
p5195
tp5196
Rp5197
(dp5198
g12
(lp5199
sg15
S'Everton'
p5200
sg17
g1
(g5
S'\x0b\x00\x00\x00\x00\x00\x00\x00'
p5201
tp5202
Rp5203
sg21
S'Manchester City'
p5204
sg23
(lp5205
I11
aI11
asg25
g1
(g5
S'+\x00\x00\x00\x00\x00\x00\x00'
p5206
tp5207
Rp5208
sg29
(lp5209
S'Osman, Leon'
p5210
aS'Jelavic, Nikica'
p5211
assg1
(g5
S'\xb4\xbf\x06\x00\x00\x00\x00\x00'
p5212
tp5213
Rp5214
(dp5215
g12
(lp5216
sg15
S'Manchester United'
p5217
sg17
g1
(g5
S'\x01\x00\x00\x00\x00\x00\x00\x00'
p5218
tp5219
Rp5220
sg21
S'Reading'
p5221
sg23
(lp5222
I1
asg25
g1
(g5
S'l\x00\x00\x00\x00\x00\x00\x00'
p5223
tp5224
Rp5225
sg29
(lp5226
S'Rooney, Wayne'
p5227
assg1
(g5
S'\xb5\xbf\x06\x00\x00\x00\x00\x00'
p5228
tp5229
Rp5230
(dp5231
g12
(lp5232
S'Coutinho, Philippe'
p5233
asg15
S'Southampton'
p5234
sg17
g1
(g5
S'\x14\x00\x00\x00\x00\x00\x00\x00'
p5235
tp5236
Rp5237
sg21
S'Liverpool'
p5238
sg23
(lp5239
I20
aI20
aI14
aI20
asg25
g1
(g5
S'\x0e\x00\x00\x00\x00\x00\x00\x00'
p5240
tp5241
Rp5242
sg29
(lp5243
S'Schneiderlin, Morgan'
p5244
aS'Lambert, Rickie'
p5245
aS'Rodriguez, Jay'
p5246
assg1
(g5
S'\xb6\xbf\x06\x00\x00\x00\x00\x00'
p5247
tp5248
Rp5249
(dp5250
g12
(lp5251
sg15
S'Stoke City'
p5252
sg17
g1
(g5
S'n\x00\x00\x00\x00\x00\x00\x00'
p5253
tp5254
Rp5255
sg21
S'West Bromwich Albion'
p5256
sg23
(lp5257
sg25
g1
(g5
S'#\x00\x00\x00\x00\x00\x00\x00'
p5258
tp5259
Rp5260
sg29
(lp5261
ssg1
(g5
S'\xb7\xbf\x06\x00\x00\x00\x00\x00'
p5262
tp5263
Rp5264
(dp5265
g12
(lp5266
S'Hoolahan, Wes'
p5267
asg15
S'Sunderland'
p5268
sg17
g1
(g5
S'8\x00\x00\x00\x00\x00\x00\x00'
p5269
tp5270
Rp5271
sg21
S'Norwich City'
p5272
sg23
(lp5273
I45
aI56
asg25
g1
(g5
S'-\x00\x00\x00\x00\x00\x00\x00'
p5274
tp5275
Rp5276
sg29
(lp5277
S'Gardner, Craig'
p5278
assg1
(g5
S'\xb8\xbf\x06\x00\x00\x00\x00\x00'
p5279
tp5280
Rp5281
(dp5282
g12
(lp5283
S'Monreal, Nacho'
p5284
aS'Yao Kouassi, Gervais'
p5285
asg15
S'Swansea City'
p5286
sg17
g1
(g5
S'P\x00\x00\x00\x00\x00\x00\x00'
p5287
tp5288
Rp5289
sg21
S'Arsenal'
p5290
sg23
(lp5291
I3
aI3
asg25
g1
(g5
S'\x03\x00\x00\x00\x00\x00\x00\x00'
p5292
tp5293
Rp5294
sg29
(lp5295
ssg1
(g5
S'\xb9\xbf\x06\x00\x00\x00\x00\x00'
p5296
tp5297
Rp5298
(dp5299
g12
(lp5300
S'Berbatov, Dimitar'
p5301
asg15
S'Tottenham Hotspur'
p5302
sg17
g1
(g5
S'\x06\x00\x00\x00\x00\x00\x00\x00'
p5303
tp5304
Rp5305
sg21
S'Fulham'
p5306
sg23
(lp5307
I54
asg25
g1
(g5
S'6\x00\x00\x00\x00\x00\x00\x00'
p5308
tp5309
Rp5310
sg29
(lp5311
ssg1
(g5
S'\xba\xbf\x06\x00\x00\x00\x00\x00'
p5312
tp5313
Rp5314
(dp5315
g12
(lp5316
S'Santon, Davide'
p5317
asg15
S'Wigan Athletic'
p5318
sg17
g1
(g5
S'o\x00\x00\x00\x00\x00\x00\x00'
p5319
tp5320
Rp5321
sg21
S'Newcastle United'
p5322
sg23
(lp5323
I111
aI4
aI111
asg25
g1
(g5
S'\x04\x00\x00\x00\x00\x00\x00\x00'
p5324
tp5325
Rp5326
sg29
(lp5327
S'Beausejour, Jean'
p5328
aS'Kone, Arouna'
p5329
assg1
(g5
S'\xbb\xbf\x06\x00\x00\x00\x00\x00'
p5330
tp5331
Rp5332
(dp5333
g12
(lp5334
S'Robson-Kanu, Hal'
p5335
asg15
S'Arsenal'
p5336
sg17
g1
(g5
S'\x03\x00\x00\x00\x00\x00\x00\x00'
p5337
tp5338
Rp5339
sg21
g5221
sg23
(lp5340
I3
aI3
aI3
aI108
aI3
asg25
g1
(g5
S'l\x00\x00\x00\x00\x00\x00\x00'
p5341
tp5342
Rp5343
sg29
(lp5344
g5285
aS'Cazorla, Santiago'
p5345
aS'Giroud, Olivier'
p5346
aS'Arteta, Mikel'
p5347
assg1
(g5
S'\xbc\xbf\x06\x00\x00\x00\x00\x00'
p5348
tp5349
Rp5350
(dp5351
g12
(lp5352
S'Henderson, Jordan'
p5353
aS'Gerrard, Steven'
p5354
asg15
g5167
sg17
g1
(g5
S'\x07\x00\x00\x00\x00\x00\x00\x00'
p5355
tp5356
Rp5357
sg21
g5238
sg23
(lp5358
I7
aI14
aI14
asg25
g1
(g5
S'\x0e\x00\x00\x00\x00\x00\x00\x00'
p5359
tp5360
Rp5361
sg29
(lp5362
g5113
assg1
(g5
S'\xbd\xbf\x06\x00\x00\x00\x00\x00'
p5363
tp5364
Rp5365
(dp5366
g12
(lp5367
sg15
g5200
sg17
g1
(g5
S'\x0b\x00\x00\x00\x00\x00\x00\x00'
p5368
tp5369
Rp5370
sg21
S'Stoke City'
p5371
sg23
(lp5372
I11
asg25
g1
(g5
S'n\x00\x00\x00\x00\x00\x00\x00'
p5373
tp5374
Rp5375
sg29
(lp5376
S'Mirallas, Kevin'
p5377
assg1
(g5
S'\xbe\xbf\x06\x00\x00\x00\x00\x00'
p5378
tp5379
Rp5380
(dp5381
g12
(lp5382
S'Hill, Clint'
p5383
aS'Taarabt, Adel'
p5384
aS'Remy, Loic'
p5385
asg15
S'Fulham'
p5386
sg17
g1
(g5
S'6\x00\x00\x00\x00\x00\x00\x00'
p5387
tp5388
Rp5389
sg21
g5171
sg23
(lp5390
I54
aI54
aI52
aI52
aI52
asg25
g1
(g5
S'4\x00\x00\x00\x00\x00\x00\x00'
p5391
tp5392
Rp5393
sg29
(lp5394
g5301
ag5301
assg1
(g5
S'\xbf\xbf\x06\x00\x00\x00\x00\x00'
p5395
tp5396
Rp5397
(dp5398
g12
(lp5399
sg15
S'Manchester City'
p5400
sg17
g1
(g5
S'+\x00\x00\x00\x00\x00\x00\x00'
p5401
tp5402
Rp5403
sg21
g5322
sg23
(lp5404
I43
aI43
aI43
aI43
asg25
g1
(g5
S'\x04\x00\x00\x00\x00\x00\x00\x00'
p5405
tp5406
Rp5407
sg29
(lp5408
S'Tevez, Carlos'
p5409
aS'Silva, David'
p5410
aS'Kompany, Vincent'
p5411
aS'Toure, Gnegneri Yaya'
p5412
assg1
(g5
S'\xc0\xbf\x06\x00\x00\x00\x00\x00'
p5413
tp5414
Rp5415
(dp5416
g12
(lp5417
S'Terry, John'
p5418
asg15
g5234
sg17
g1
(g5
S'\x14\x00\x00\x00\x00\x00\x00\x00'
p5419
tp5420
Rp5421
sg21
S'Chelsea'
p5422
sg23
(lp5423
I20
aI8
aI20
asg25
g1
(g5
S'\x08\x00\x00\x00\x00\x00\x00\x00'
p5424
tp5425
Rp5426
sg29
(lp5427
g5246
ag5245
assg1
(g5
S'\xc1\xbf\x06\x00\x00\x00\x00\x00'
p5428
tp5429
Rp5430
(dp5431
g12
(lp5432
sg15
S'Sunderland'
p5433
sg17
g1
(g5
S'8\x00\x00\x00\x00\x00\x00\x00'
p5434
tp5435
Rp5436
sg21
S'Manchester United'
p5437
sg23
(lp5438
I56
asg25
g1
(g5
S'\x01\x00\x00\x00\x00\x00\x00\x00'
p5439
tp5440
Rp5441
sg29
(lp5442
S'Bramble, Titus'
p5443
assg1
(g5
S'\xc2\xbf\x06\x00\x00\x00\x00\x00'
p5444
tp5445
Rp5446
(dp5447
g12
(lp5448
S'Vertonghen, Jan'
p5449
aS'Bale, Gareth'
p5450
asg15
S'Swansea City'
p5451
sg17
g1
(g5
S'P\x00\x00\x00\x00\x00\x00\x00'
p5452
tp5453
Rp5454
sg21
S'Tottenham Hotspur'
p5455
sg23
(lp5456
I6
aI6
aI80
asg25
g1
(g5
S'\x06\x00\x00\x00\x00\x00\x00\x00'
p5457
tp5458
Rp5459
sg29
(lp5460
S'Perez Cuesta, Miguel'
p5461
assg1
(g5
S'\xc3\xbf\x06\x00\x00\x00\x00\x00'
p5462
tp5463
Rp5464
(dp5465
g12
(lp5466
S'Dorrans, Graham'
p5467
asg15
S'West Ham United'
p5468
sg17
g1
(g5
S'\x15\x00\x00\x00\x00\x00\x00\x00'
p5469
tp5470
Rp5471
sg21
S'West Bromwich Albion'
p5472
sg23
(lp5473
I21
aI21
aI21
aI35
asg25
g1
(g5
S'#\x00\x00\x00\x00\x00\x00\x00'
p5474
tp5475
Rp5476
sg29
(lp5477
S'Carroll, Andy'
p5478
aS"O'Neil, Gary"
p5479
ag5478
assg1
(g5
S'\xc4\xbf\x06\x00\x00\x00\x00\x00'
p5480
tp5481
Rp5482
(dp5483
g12
(lp5484
sg15
S'Wigan Athletic'
p5485
sg17
g1
(g5
S'o\x00\x00\x00\x00\x00\x00\x00'
p5486
tp5487
Rp5488
sg21
S'Norwich City'
p5489
sg23
(lp5490
I111
asg25
g1
(g5
S'-\x00\x00\x00\x00\x00\x00\x00'
p5491
tp5492
Rp5493
sg29
(lp5494
S'Kone, Arouna'
p5495
assg1
(g5
S'\xc5\xbf\x06\x00\x00\x00\x00\x00'
p5496
tp5497
Rp5498
(dp5499
g12
(lp5500
S'Kilgallon, Matthew'
p5501
asg15
S'Chelsea'
p5502
sg17
g1
(g5
S'\x08\x00\x00\x00\x00\x00\x00\x00'
p5503
tp5504
Rp5505
sg21
S'Sunderland'
p5506
sg23
(lp5507
I8
aI56
aI8
asg25
g1
(g5
S'8\x00\x00\x00\x00\x00\x00\x00'
p5508
tp5509
Rp5510
sg29
(lp5511
S'Azpilicueta, Cesar'
p5512
aS'Ivanovic, Branislav'
p5513
assg1
(g5
S'\xc6\xbf\x06\x00\x00\x00\x00\x00'
p5514
tp5515
Rp5516
(dp5517
g12
(lp5518
sg15
S'Liverpool'
p5519
sg17
g1
(g5
S'\x0e\x00\x00\x00\x00\x00\x00\x00'
p5520
tp5521
Rp5522
sg21
S'West Ham United'
p5523
sg23
(lp5524
sg25
g1
(g5
S'\x15\x00\x00\x00\x00\x00\x00\x00'
p5525
tp5526
Rp5527
sg29
(lp5528
ssg1
(g5
S'\xc7\xbf\x06\x00\x00\x00\x00\x00'
p5529
tp5530
Rp5531
(dp5532
g12
(lp5533
S'Milner, James'
p5534
aS'Kompany, Vincent'
p5535
aS'Aguero, Sergio'
p5536
asg15
S'Manchester United'
p5537
sg17
g1
(g5
S'\x01\x00\x00\x00\x00\x00\x00\x00'
p5538
tp5539
Rp5540
sg21
S'Manchester City'
p5541
sg23
(lp5542
I43
aI43
aI43
asg25
g1
(g5
S'+\x00\x00\x00\x00\x00\x00\x00'
p5543
tp5544
Rp5545
sg29
(lp5546
ssg1
(g5
S'\xc8\xbf\x06\x00\x00\x00\x00\x00'
p5547
tp5548
Rp5549
(dp5550
g12
(lp5551
sg15
S'Newcastle United'
p5552
sg17
g1
(g5
S'\x04\x00\x00\x00\x00\x00\x00\x00'
p5553
tp5554
Rp5555
sg21
S'Fulham'
p5556
sg23
(lp5557
I4
asg25
g1
(g5
S'6\x00\x00\x00\x00\x00\x00\x00'
p5558
tp5559
Rp5560
sg29
(lp5561
S'Cisse, Papiss Demba'
p5562
assg1
(g5
S'\xc9\xbf\x06\x00\x00\x00\x00\x00'
p5563
tp5564
Rp5565
(dp5566
g12
(lp5567
g5461
aS'Moore, Luke'
p5568
asg15
S'Norwich City'
p5569
sg17
g1
(g5
S'-\x00\x00\x00\x00\x00\x00\x00'
p5570
tp5571
Rp5572
sg21
S'Swansea City'
p5573
sg23
(lp5574
I80
aI45
aI45
aI80
asg25
g1
(g5
S'P\x00\x00\x00\x00\x00\x00\x00'
p5575
tp5576
Rp5577
sg29
(lp5578
S'Snodgrass, Robert'
p5579
aS'Turner, Michael'
p5580
assg1
(g5
S'\xca\xbf\x06\x00\x00\x00\x00\x00'
p5581
tp5582
Rp5583
(dp5584
g12
(lp5585
S'Maloney, Shaun'
p5586
asg15
S'Queens Park Rangers'
p5587
sg17
g1
(g5
S'4\x00\x00\x00\x00\x00\x00\x00'
p5588
tp5589
Rp5590
sg21
S'Wigan Athletic'
p5591
sg23
(lp5592
I52
aI111
asg25
g1
(g5
S'o\x00\x00\x00\x00\x00\x00\x00'
p5593
tp5594
Rp5595
sg29
(lp5596
S'Remy, Loic'
p5597
assg1
(g5
S'\xcb\xbf\x06\x00\x00\x00\x00\x00'
p5598
tp5599
Rp5600
(dp5601
g12
(lp5602
S'Rodriguez, Jay'
p5603
aS'Lallana, Adam'
p5604
asg15
S'Reading'
p5605
sg17
g1
(g5
S'l\x00\x00\x00\x00\x00\x00\x00'
p5606
tp5607
Rp5608
sg21
S'Southampton'
p5609
sg23
(lp5610
I20
aI20
asg25
g1
(g5
S'\x14\x00\x00\x00\x00\x00\x00\x00'
p5611
tp5612
Rp5613
sg29
(lp5614
ssg1
(g5
S'\xcc\xbf\x06\x00\x00\x00\x00\x00'
p5615
tp5616
Rp5617
(dp5618
g12
(lp5619
S'Agbonlahor, Gabriel'
p5620
aS'Lowton, Matthew'
p5621
aS'Benteke, Christian'
p5622
asg15
S'Stoke City'
p5623
sg17
g1
(g5
S'n\x00\x00\x00\x00\x00\x00\x00'
p5624
tp5625
Rp5626
sg21
S'Aston Villa'
p5627
sg23
(lp5628
I7
aI110
aI7
aI7
asg25
g1
(g5
S'\x07\x00\x00\x00\x00\x00\x00\x00'
p5629
tp5630
Rp5631
sg29
(lp5632
S'Kightly, Michael'
p5633
assg1
(g5
S'\xcd\xbf\x06\x00\x00\x00\x00\x00'
p5634
tp5635
Rp5636
(dp5637
g12
(lp5638
S'Jagielka, Phil'
p5639
aS'Mirallas, Kevin'
p5640
asg15
S'Tottenham Hotspur'
p5641
sg17
g1
(g5
S'\x06\x00\x00\x00\x00\x00\x00\x00'
p5642
tp5643
Rp5644
sg21
S'Everton'
p5645
sg23
(lp5646
I6
aI11
aI11
aI6
asg25
g1
(g5
S'\x0b\x00\x00\x00\x00\x00\x00\x00'
p5647
tp5648
Rp5649
sg29
(lp5650
S'Adebayor, Emmanuel'
p5651
aS'Sigurdsson, Gylfi'
p5652
assg1
(g5
S'\xce\xbf\x06\x00\x00\x00\x00\x00'
p5653
tp5654
Rp5655
(dp5656
g12
(lp5657
S'Rosicky, Tomas'
p5658
ag5658
asg15
S'West Bromwich Albion'
p5659
sg17
g1
(g5
S'#\x00\x00\x00\x00\x00\x00\x00'
p5660
tp5661
Rp5662
sg21
S'Arsenal'
p5663
sg23
(lp5664
I3
aI3
aI35
asg25
g1
(g5
S'\x03\x00\x00\x00\x00\x00\x00\x00'
p5665
tp5666
Rp5667
sg29
(lp5668
S'Morrison, James'
p5669
assg1
(g5
S'\xcf\xbf\x06\x00\x00\x00\x00\x00'
p5670
tp5671
Rp5672
(dp5673
g12
(lp5674
g5580
asg15
S'Arsenal'
p5675
sg17
g1
(g5
S'\x03\x00\x00\x00\x00\x00\x00\x00'
p5676
tp5677
Rp5678
sg21
g5489
sg23
(lp5679
I45
aI3
aI3
aI3
asg25
g1
(g5
S'-\x00\x00\x00\x00\x00\x00\x00'
p5680
tp5681
Rp5682
sg29
(lp5683
S'Arteta, Mikel'
p5684
aS'Giroud, Olivier'
p5685
aS'Podolski, Lukas'
p5686
assg1
(g5
S'\xd0\xbf\x06\x00\x00\x00\x00\x00'
p5687
tp5688
Rp5689
(dp5690
g12
(lp5691
sg15
S'Aston Villa'
p5692
sg17
g1
(g5
S'\x07\x00\x00\x00\x00\x00\x00\x00'
p5693
tp5694
Rp5695
sg21
g5556
sg23
(lp5696
I7
aI7
asg25
g1
(g5
S'6\x00\x00\x00\x00\x00\x00\x00'
p5697
tp5698
Rp5699
sg29
(lp5700
S"N'Zogbia, Charles"
p5701
aS'Delph, Fabian'
p5702
assg1
(g5
S'\xd1\xbf\x06\x00\x00\x00\x00\x00'
p5703
tp5704
Rp5705
(dp5706
g12
(lp5707
g5651
ag5652
asg15
g5502
sg17
g1
(g5
S'\x08\x00\x00\x00\x00\x00\x00\x00'
p5708
tp5709
Rp5710
sg21
g5455
sg23
(lp5711
I8
aI6
aI8
aI6
asg25
g1
(g5
S'\x06\x00\x00\x00\x00\x00\x00\x00'
p5712
tp5713
Rp5714
sg29
(lp5715
S'dos Santos Emboada Junior, Oscar'
p5716
aS'Santos do Nascimento, Ramires'
p5717
assg1
(g5
S'\xd2\xbf\x06\x00\x00\x00\x00\x00'
p5718
tp5719
Rp5720
(dp5721
g12
(lp5722
sg15
S'Everton'
p5723
sg17
g1
(g5
S'\x0b\x00\x00\x00\x00\x00\x00\x00'
p5724
tp5725
Rp5726
sg21
S'Queens Park Rangers'
p5727
sg23
(lp5728
I11
aI11
asg25
g1
(g5
S'4\x00\x00\x00\x00\x00\x00\x00'
p5729
tp5730
Rp5731
sg29
(lp5732
S'Gibson, Darron'
p5733
aS'Anichebe, Victor'
p5734
assg1
(g5
S'\xd3\xbf\x06\x00\x00\x00\x00\x00'
p5735
tp5736
Rp5737
(dp5738
g12
(lp5739
sg15
S'Manchester City'
p5740
sg17
g1
(g5
S'+\x00\x00\x00\x00\x00\x00\x00'
p5741
tp5742
Rp5743
sg21
g5472
sg23
(lp5744
I43
asg25
g1
(g5
S'#\x00\x00\x00\x00\x00\x00\x00'
p5745
tp5746
Rp5747
sg29
(lp5748
S'Dzeko, Edin'
p5749
assg1
(g5
S'\xd4\xbf\x06\x00\x00\x00\x00\x00'
p5750
tp5751
Rp5752
(dp5753
g12
(lp5754
S'Sessegnon, Stephane'
p5755
aS'Johnson, Adam'
p5756
aS'Vaughan, David'
p5757
asg15
S'Newcastle United'
p5758
sg17
g1
(g5
S'\x04\x00\x00\x00\x00\x00\x00\x00'
p5759
tp5760
Rp5761
sg21
S'Sunderland'
p5762
sg23
(lp5763
I56
aI56
aI56
asg25
g1
(g5
S'8\x00\x00\x00\x00\x00\x00\x00'
p5764
tp5765
Rp5766
sg29
(lp5767
ssg1
(g5
S'\xd5\xbf\x06\x00\x00\x00\x00\x00'
p5768
tp5769
Rp5770
(dp5771
g12
(lp5772
sg15
S'Reading'
p5773
sg17
g1
(g5
S'l\x00\x00\x00\x00\x00\x00\x00'
p5774
tp5775
Rp5776
sg21
S'Liverpool'
p5777
sg23
(lp5778
sg25
g1
(g5
S'\x0e\x00\x00\x00\x00\x00\x00\x00'
p5779
tp5780
Rp5781
sg29
(lp5782
ssg1
(g5
S'\xd6\xbf\x06\x00\x00\x00\x00\x00'
p5783
tp5784
Rp5785
(dp5786
g12
(lp5787
S'Carroll, Andy'
p5788
asg15
S'Southampton'
p5789
sg17
g1
(g5
S'\x14\x00\x00\x00\x00\x00\x00\x00'
p5790
tp5791
Rp5792
sg21
S'West Ham United'
p5793
sg23
(lp5794
I20
aI21
asg25
g1
(g5
S'\x15\x00\x00\x00\x00\x00\x00\x00'
p5795
tp5796
Rp5797
sg29
(lp5798
S'Ramirez, Gaston'
p5799
assg1
(g5
S'\xd7\xbf\x06\x00\x00\x00\x00\x00'
p5800
tp5801
Rp5802
(dp5803
g12
(lp5804
S'Carrick, Michael'
p5805
aS'van Persie, Robin'
p5806
asg15
S'Stoke City'
p5807
sg17
g1
(g5
S'n\x00\x00\x00\x00\x00\x00\x00'
p5808
tp5809
Rp5810
sg21
S'Manchester United'
p5811
sg23
(lp5812
I1
aI1
asg25
g1
(g5
S'\x01\x00\x00\x00\x00\x00\x00\x00'
p5813
tp5814
Rp5815
sg29
(lp5816
ssg1
(g5
S'\xd8\xbf\x06\x00\x00\x00\x00\x00'
p5817
tp5818
Rp5819
(dp5820
g12
(lp5821
S'Rangel, Angel'
p5822
aS'Shechter, Itay'
p5823
aS'Tiendalli, Dwight'
p5824
asg15
S'Wigan Athletic'
p5825
sg17
g1
(g5
S'o\x00\x00\x00\x00\x00\x00\x00'
p5826
tp5827
Rp5828
sg21
S'Swansea City'
p5829
sg23
(lp5830
I111
aI80
aI111
aI80
aI80
asg25
g1
(g5
S'P\x00\x00\x00\x00\x00\x00\x00'
p5831
tp5832
Rp5833
sg29
(lp5834
S'Espinoza, Roger'
p5835
aS'McCarthy, James'
p5836
assg1
(g5
S'\xd9\xbf\x06\x00\x00\x00\x00\x00'
p5837
tp5838
Rp5839
(dp5840
g12
(lp5841
S'Mertesacker, Per'
p5842
asg15
S'Fulham'
p5843
sg17
g1
(g5
S'6\x00\x00\x00\x00\x00\x00\x00'
p5844
tp5845
Rp5846
sg21
S'Arsenal'
p5847
sg23
(lp5848
I3
asg25
g1
(g5
S'\x03\x00\x00\x00\x00\x00\x00\x00'
p5849
tp5850
Rp5851
sg29
(lp5852
ssg1
(g5
S'\xda\xbf\x06\x00\x00\x00\x00\x00'
p5853
tp5854
Rp5855
(dp5856
g12
(lp5857
S'dos Santos Emboada Junior, Oscar'
p5858
aS'Hazard, Eden'
p5859
asg15
S'Liverpool'
p5860
sg17
g1
(g5
S'\x0e\x00\x00\x00\x00\x00\x00\x00'
p5861
tp5862
Rp5863
sg21
S'Chelsea'
p5864
sg23
(lp5865
I8
aI14
aI8
aI14
asg25
g1
(g5
S'\x08\x00\x00\x00\x00\x00\x00\x00'
p5866
tp5867
Rp5868
sg29
(lp5869
S'Sturridge, Daniel'
p5870
aS'Suarez, Luis'
p5871
assg1
(g5
S'\xdb\xbf\x06\x00\x00\x00\x00\x00'
p5872
tp5873
Rp5874
(dp5875
g12
(lp5876
sg15
S'Manchester United'
p5877
sg17
g1
(g5
S'\x01\x00\x00\x00\x00\x00\x00\x00'
p5878
tp5879
Rp5880
sg21
S'Aston Villa'
p5881
sg23
(lp5882
I1
aI1
aI1
asg25
g1
(g5
S'\x07\x00\x00\x00\x00\x00\x00\x00'
p5883
tp5884
Rp5885
sg29
(lp5886
g5806
ag5806
ag5806
assg1
(g5
S'\xdc\xbf\x06\x00\x00\x00\x00\x00'
p5887
tp5888
Rp5889
(dp5890
g12
(lp5891
S'McCleary, Garath'
p5892
asg15
S'Norwich City'
p5893
sg17
g1
(g5
S'-\x00\x00\x00\x00\x00\x00\x00'
p5894
tp5895
Rp5896
sg21
S'Reading'
p5897
sg23
(lp5898
I45
aI45
aI108
asg25
g1
(g5
S'l\x00\x00\x00\x00\x00\x00\x00'
p5899
tp5900
Rp5901
sg29
(lp5902
S'Bennett, Ryan'
p5903
aS'Bennett, Elliott'
p5904
assg1
(g5
S'\xdd\xbf\x06\x00\x00\x00\x00\x00'
p5905
tp5906
Rp5907
(dp5908
g12
(lp5909
S'Crouch, Peter'
p5910
aS'Walters, Jonathan'
p5911
asg15
S'Queens Park Rangers'
p5912
sg17
g1
(g5
S'4\x00\x00\x00\x00\x00\x00\x00'
p5913
tp5914
Rp5915
sg21
S'Stoke City'
p5916
sg23
(lp5917
I110
aI110
asg25
g1
(g5
S'n\x00\x00\x00\x00\x00\x00\x00'
p5918
tp5919
Rp5920
sg29
(lp5921
ssg1
(g5
S'\xde\xbf\x06\x00\x00\x00\x00\x00'
p5922
tp5923
Rp5924
(dp5925
g12
(lp5926
sg15
S'Sunderland'
p5927
sg17
g1
(g5
S'8\x00\x00\x00\x00\x00\x00\x00'
p5928
tp5929
Rp5930
sg21
S'Everton'
p5931
sg23
(lp5932
I56
asg25
g1
(g5
S'\x0b\x00\x00\x00\x00\x00\x00\x00'
p5933
tp5934
Rp5935
sg29
(lp5936
g5755
assg1
(g5
S'\xdf\xbf\x06\x00\x00\x00\x00\x00'
p5937
tp5938
Rp5939
(dp5940
g12
(lp5941
sg15
S'Swansea City'
p5942
sg17
g1
(g5
S'P\x00\x00\x00\x00\x00\x00\x00'
p5943
tp5944
Rp5945
sg21
S'Southampton'
p5946
sg23
(lp5947
sg25
g1
(g5
S'\x14\x00\x00\x00\x00\x00\x00\x00'
p5948
tp5949
Rp5950
sg29
(lp5951
ssg1
(g5
S'\xe0\xbf\x06\x00\x00\x00\x00\x00'
p5952
tp5953
Rp5954
(dp5955
g12
(lp5956
S'Nasri, Samir'
p5957
asg15
S'Tottenham Hotspur'
p5958
sg17
g1
(g5
S'\x06\x00\x00\x00\x00\x00\x00\x00'
p5959
tp5960
Rp5961
sg21
S'Manchester City'
p5962
sg23
(lp5963
I43
aI6
aI6
aI6
asg25
g1
(g5
S'+\x00\x00\x00\x00\x00\x00\x00'
p5964
tp5965
Rp5966
sg29
(lp5967
S'Dempsey, Clint'
p5968
aS'Defoe, Jermain'
p5969
aS'Bale, Gareth'
p5970
assg1
(g5
S'\xe1\xbf\x06\x00\x00\x00\x00\x00'
p5971
tp5972
Rp5973
(dp5974
g12
(lp5975
S'Gouffran, Yoan'
p5976
asg15
S'West Bromwich Albion'
p5977
sg17
g1
(g5
S'#\x00\x00\x00\x00\x00\x00\x00'
p5978
tp5979
Rp5980
sg21
S'Newcastle United'
p5981
sg23
(lp5982
I4
aI35
asg25
g1
(g5
S'\x04\x00\x00\x00\x00\x00\x00\x00'
p5983
tp5984
Rp5985
sg29
(lp5986
S'Jones, Billy'
p5987
assg1
(g5
S'\xe2\xbf\x06\x00\x00\x00\x00\x00'
p5988
tp5989
Rp5990
(dp5991
g12
(lp5992
sg15
S'West Ham United'
p5993
sg17
g1
(g5
S'\x15\x00\x00\x00\x00\x00\x00\x00'
p5994
tp5995
Rp5996
sg21
S'Wigan Athletic'
p5997
sg23
(lp5998
I21
aI21
asg25
g1
(g5
S'o\x00\x00\x00\x00\x00\x00\x00'
p5999
tp6000
Rp6001
sg29
(lp6002
S'Jarvis, Matthew'
p6003
aS'Nolan, Kevin'
p6004
assg1
(g5
S'\xe3\xbf\x06\x00\x00\x00\x00\x00'
p6005
tp6006
Rp6007
(dp6008
g12
(lp6009
g5806
asg15
S'Arsenal'
p6010
sg17
g1
(g5
S'\x03\x00\x00\x00\x00\x00\x00\x00'
p6011
tp6012
Rp6013
sg21
g5811
sg23
(lp6014
I3
aI1
asg25
g1
(g5
S'\x01\x00\x00\x00\x00\x00\x00\x00'
p6015
tp6016
Rp6017
sg29
(lp6018
S'Walcott, Theo'
p6019
assg1
(g5
S'\xe4\xbf\x06\x00\x00\x00\x00\x00'
p6020
tp6021
Rp6022
(dp6023
g12
(lp6024
S'Rose, Danny'
p6025
asg15
S'Aston Villa'
p6026
sg17
g1
(g5
S'\x07\x00\x00\x00\x00\x00\x00\x00'
p6027
tp6028
Rp6029
sg21
g5762
sg23
(lp6030
I7
aI56
aI7
aI7
aI7
aI7
aI7
asg25
g1
(g5
S'8\x00\x00\x00\x00\x00\x00\x00'
p6031
tp6032
Rp6033
sg29
(lp6034
S'Vlaar, Ron'
p6035
aS'Weimann, Andreas'
p6036
aS'Benteke, Christian'
p6037
ag6037
ag6037
aS'Agbonlahor, Gabriel'
p6038
assg1
(g5
S'\xe5\xbf\x06\x00\x00\x00\x00\x00'
p6039
tp6040
Rp6041
(dp6042
g12
(lp6043
sg15
S'Chelsea'
p6044
sg17
g1
(g5
S'\x08\x00\x00\x00\x00\x00\x00\x00'
p6045
tp6046
Rp6047
sg21
g5829
sg23
(lp6048
I8
aI8
asg25
g1
(g5
S'P\x00\x00\x00\x00\x00\x00\x00'
p6049
tp6050
Rp6051
sg29
(lp6052
g5858
aS'Lampard, Frank'
p6053
assg1
(g5
S'\xe6\xbf\x06\x00\x00\x00\x00\x00'
p6054
tp6055
Rp6056
(dp6057
g12
(lp6058
sg15
S'Everton'
p6059
sg17
g1
(g5
S'\x0b\x00\x00\x00\x00\x00\x00\x00'
p6060
tp6061
Rp6062
sg21
S'Fulham'
p6063
sg23
(lp6064
I11
asg25
g1
(g5
S'6\x00\x00\x00\x00\x00\x00\x00'
p6065
tp6066
Rp6067
sg29
(lp6068
S'Pienaar, Steven'
p6069
assg1
(g5
S'\xe7\xbf\x06\x00\x00\x00\x00\x00'
p6070
tp6071
Rp6072
(dp6073
g12
(lp6074
S'Carroll, Andy'
p6075
asg15
S'Manchester City'
p6076
sg17
g1
(g5
S'+\x00\x00\x00\x00\x00\x00\x00'
p6077
tp6078
Rp6079
sg21
g5793
sg23
(lp6080
I43
aI43
aI21
asg25
g1
(g5
S'\x15\x00\x00\x00\x00\x00\x00\x00'
p6081
tp6082
Rp6083
sg29
(lp6084
S'Aguero, Sergio'
p6085
aS'Toure, Gnegneri Yaya'
p6086
assg1
(g5
S'\xe8\xbf\x06\x00\x00\x00\x00\x00'
p6087
tp6088
Rp6089
(dp6090
g12
(lp6091
S'Agger, Daniel'
p6092
aS'Henderson, Jordan'
p6093
aS'Sturridge, Daniel'
p6094
ag6094
aS'Borini, Fabio'
p6095
ag6093
asg15
S'Newcastle United'
p6096
sg17
g1
(g5
S'\x04\x00\x00\x00\x00\x00\x00\x00'
p6097
tp6098
Rp6099
sg21
S'Liverpool'
p6100
sg23
(lp6101
I14
aI14
aI14
aI14
aI14
aI14
asg25
g1
(g5
S'\x0e\x00\x00\x00\x00\x00\x00\x00'
p6102
tp6103
Rp6104
sg29
(lp6105
ssg1
(g5
S'\xe9\xbf\x06\x00\x00\x00\x00\x00'
p6106
tp6107
Rp6108
(dp6109
g12
(lp6110
sg15
S'Reading'
p6111
sg17
g1
(g5
S'l\x00\x00\x00\x00\x00\x00\x00'
p6112
tp6113
Rp6114
sg21
S'Queens Park Rangers'
p6115
sg23
(lp6116
sg25
g1
(g5
S'4\x00\x00\x00\x00\x00\x00\x00'
p6117
tp6118
Rp6119
sg29
(lp6120
ssg1
(g5
S'\xea\xbf\x06\x00\x00\x00\x00\x00'
p6121
tp6122
Rp6123
(dp6124
g12
(lp6125
S'Fortune, Marc-Antoine'
p6126
aS'Lukaku, Romelu'
p6127
aS'Long, Shane'
p6128
asg15
S'Southampton'
p6129
sg17
g1
(g5
S'\x14\x00\x00\x00\x00\x00\x00\x00'
p6130
tp6131
Rp6132
sg21
S'West Bromwich Albion'
p6133
sg23
(lp6134
I35
aI35
aI35
asg25
g1
(g5
S'#\x00\x00\x00\x00\x00\x00\x00'
p6135
tp6136
Rp6137
sg29
(lp6138
ssg1
(g5
S'\xeb\xbf\x06\x00\x00\x00\x00\x00'
p6139
tp6140
Rp6141
(dp6142
g12
(lp6143
sg15
S'Stoke City'
p6144
sg17
g1
(g5
S'n\x00\x00\x00\x00\x00\x00\x00'
p6145
tp6146
Rp6147
sg21
S'Norwich City'
p6148
sg23
(lp6149
I110
asg25
g1
(g5
S'-\x00\x00\x00\x00\x00\x00\x00'
p6150
tp6151
Rp6152
sg29
(lp6153
S'Adam, Charlie'
p6154
assg1
(g5
S'\xec\xbf\x06\x00\x00\x00\x00\x00'
p6155
tp6156
Rp6157
(dp6158
g12
(lp6159
S'Bale, Gareth'
p6160
asg15
S'Wigan Athletic'
p6161
sg17
g1
(g5
S'o\x00\x00\x00\x00\x00\x00\x00'
p6162
tp6163
Rp6164
sg21
S'Tottenham Hotspur'
p6165
sg23
(lp6166
I6
aI111
aI111
aI111
asg25
g1
(g5
S'\x06\x00\x00\x00\x00\x00\x00\x00'
p6167
tp6168
Rp6169
sg29
(lp6170
S'Boyce, Emmerson'
p6171
aS'McManaman, Callum'
p6172
ag6171
assg1
(g5
S'\xed\xbf\x06\x00\x00\x00\x00\x00'
p6173
tp6174
Rp6175
(dp6176
g12
(lp6177
S'Robson-Kanu, Hal'
p6178
ag6178
aS'Le Fondre, Adam'
p6179
aS'Karacan, Jem'
p6180
asg15
S'Fulham'
p6181
sg17
g1
(g5
S'6\x00\x00\x00\x00\x00\x00\x00'
p6182
tp6183
Rp6184
sg21
S'Reading'
p6185
sg23
(lp6186
I108
aI108
aI54
aI108
aI54
aI108
asg25
g1
(g5
S'l\x00\x00\x00\x00\x00\x00\x00'
p6187
tp6188
Rp6189
sg29
(lp6190
S'Ruiz, Bryan'
p6191
ag6191
assg1
(g5
S'\xee\xbf\x06\x00\x00\x00\x00\x00'
p6192
tp6193
Rp6194
(dp6195
g12
(lp6196
sg15
S'Liverpool'
p6197
sg17
g1
(g5
S'\x0e\x00\x00\x00\x00\x00\x00\x00'
p6198
tp6199
Rp6200
sg21
S'Everton'
p6201
sg23
(lp6202
sg25
g1
(g5
S'\x0b\x00\x00\x00\x00\x00\x00\x00'
p6203
tp6204
Rp6205
sg29
(lp6206
ssg1
(g5
S'\xef\xbf\x06\x00\x00\x00\x00\x00'
p6207
tp6208
Rp6209
(dp6210
g12
(lp6211
S'Mata, Juan'
p6212
asg15
S'Manchester United'
p6213
sg17
g1
(g5
S'\x01\x00\x00\x00\x00\x00\x00\x00'
p6214
tp6215
Rp6216
sg21
S'Chelsea'
p6217
sg23
(lp6218
I8
asg25
g1
(g5
S'\x08\x00\x00\x00\x00\x00\x00\x00'
p6219
tp6220
Rp6221
sg29
(lp6222
ssg1
(g5
S'\xf0\xbf\x06\x00\x00\x00\x00\x00'
p6223
tp6224
Rp6225
(dp6226
g12
(lp6227
S'Agbonlahor, Gabriel'
p6228
ag6228
asg15
S'Norwich City'
p6229
sg17
g1
(g5
S'-\x00\x00\x00\x00\x00\x00\x00'
p6230
tp6231
Rp6232
sg21
S'Aston Villa'
p6233
sg23
(lp6234
I7
aI45
aI7
asg25
g1
(g5
S'\x07\x00\x00\x00\x00\x00\x00\x00'
p6235
tp6236
Rp6237
sg29
(lp6238
S'Holt, Grant'
p6239
assg1
(g5
S'\xf1\xbf\x06\x00\x00\x00\x00\x00'
p6240
tp6241
Rp6242
(dp6243
g12
(lp6244
S'Walcott, Theo'
p6245
asg15
S'Queens Park Rangers'
p6246
sg17
g1
(g5
S'4\x00\x00\x00\x00\x00\x00\x00'
p6247
tp6248
Rp6249
sg21
S'Arsenal'
p6250
sg23
(lp6251
I3
asg25
g1
(g5
S'\x03\x00\x00\x00\x00\x00\x00\x00'
p6252
tp6253
Rp6254
sg29
(lp6255
ssg1
(g5
S'\xf2\xbf\x06\x00\x00\x00\x00\x00'
p6256
tp6257
Rp6258
(dp6259
g12
(lp6260
S'Walters, Jonathan'
p6261
asg15
S'Sunderland'
p6262
sg17
g1
(g5
S'8\x00\x00\x00\x00\x00\x00\x00'
p6263
tp6264
Rp6265
sg21
S'Stoke City'
p6266
sg23
(lp6267
I110
aI56
asg25
g1
(g5
S'n\x00\x00\x00\x00\x00\x00\x00'
p6268
tp6269
Rp6270
sg29
(lp6271
S"O'Shea, John"
p6272
assg1
(g5
S'\xf3\xbf\x06\x00\x00\x00\x00\x00'
p6273
tp6274
Rp6275
(dp6276
g12
(lp6277
sg15
S'Swansea City'
p6278
sg17
g1
(g5
S'P\x00\x00\x00\x00\x00\x00\x00'
p6279
tp6280
Rp6281
sg21
S'Manchester City'
p6282
sg23
(lp6283
sg25
g1
(g5
S'+\x00\x00\x00\x00\x00\x00\x00'
p6284
tp6285
Rp6286
sg29
(lp6287
ssg1
(g5
S'\xf4\xbf\x06\x00\x00\x00\x00\x00'
p6288
tp6289
Rp6290
(dp6291
g12
(lp6292
sg15
S'Tottenham Hotspur'
p6293
sg17
g1
(g5
S'\x06\x00\x00\x00\x00\x00\x00\x00'
p6294
tp6295
Rp6296
sg21
S'Southampton'
p6297
sg23
(lp6298
I6
asg25
g1
(g5
S'\x14\x00\x00\x00\x00\x00\x00\x00'
p6299
tp6300
Rp6301
sg29
(lp6302
g6160
assg1
(g5
S'\xf5\xbf\x06\x00\x00\x00\x00\x00'
p6303
tp6304
Rp6305
(dp6306
g12
(lp6307
S'Kone, Arouna'
p6308
aS'McArthur, James'
p6309
ag6172
asg15
S'West Bromwich Albion'
p6310
sg17
g1
(g5
S'#\x00\x00\x00\x00\x00\x00\x00'
p6311
tp6312
Rp6313
sg21
S'Wigan Athletic'
p6314
sg23
(lp6315
I35
aI111
aI35
aI111
aI111
asg25
g1
(g5
S'o\x00\x00\x00\x00\x00\x00\x00'
p6316
tp6317
Rp6318
sg29
(lp6319
g6128
aS'McAuley, Gareth'
p6320
assg1
(g5
S'\xf6\xbf\x06\x00\x00\x00\x00\x00'
p6321
tp6322
Rp6323
(dp6324
g12
(lp6325
sg15
S'West Ham United'
p6326
sg17
g1
(g5
S'\x15\x00\x00\x00\x00\x00\x00\x00'
p6327
tp6328
Rp6329
sg21
S'Newcastle United'
p6330
sg23
(lp6331
sg25
g1
(g5
S'\x04\x00\x00\x00\x00\x00\x00\x00'
p6332
tp6333
Rp6334
sg29
(lp6335
ssg1
(g5
S'\xf7\xbf\x06\x00\x00\x00\x00\x00'
p6336
tp6337
Rp6338
(dp6339
g12
(lp6340
S'Maloney, Shaun'
p6341
asg15
S'Arsenal'
p6342
sg17
g1
(g5
S'\x03\x00\x00\x00\x00\x00\x00\x00'
p6343
tp6344
Rp6345
sg21
g6314
sg23
(lp6346
I3
aI111
aI3
aI3
aI3
asg25
g1
(g5
S'o\x00\x00\x00\x00\x00\x00\x00'
p6347
tp6348
Rp6349
sg29
(lp6350
S'Podolski, Lukas'
p6351
ag6245
ag6351
aS'Ramsey, Aaron'
p6352
assg1
(g5
S'\xf8\xbf\x06\x00\x00\x00\x00\x00'
p6353
tp6354
Rp6355
(dp6356
g12
(lp6357
S'Lampard, Frank'
p6358
ag6358
asg15
S'Aston Villa'
p6359
sg17
g1
(g5
S'\x07\x00\x00\x00\x00\x00\x00\x00'
p6360
tp6361
Rp6362
sg21
g6217
sg23
(lp6363
I7
aI8
aI8
asg25
g1
(g5
S'\x08\x00\x00\x00\x00\x00\x00\x00'
p6364
tp6365
Rp6366
sg29
(lp6367
S'Benteke, Christian'
p6368
assg1
(g5
S'\xf9\xbf\x06\x00\x00\x00\x00\x00'
p6369
tp6370
Rp6371
(dp6372
g12
(lp6373
sg15
S'Everton'
p6374
sg17
g1
(g5
S'\x0b\x00\x00\x00\x00\x00\x00\x00'
p6375
tp6376
Rp6377
sg21
S'West Ham United'
p6378
sg23
(lp6379
I11
aI11
asg25
g1
(g5
S'\x15\x00\x00\x00\x00\x00\x00\x00'
p6380
tp6381
Rp6382
sg29
(lp6383
S'Mirallas, Kevin'
p6384
ag6384
assg1
(g5
S'\xfa\xbf\x06\x00\x00\x00\x00\x00'
p6385
tp6386
Rp6387
(dp6388
g12
(lp6389
g6094
ag6094
ag6094
asg15
g6181
sg17
g1
(g5
S'6\x00\x00\x00\x00\x00\x00\x00'
p6390
tp6391
Rp6392
sg21
g6100
sg23
(lp6393
I54
aI14
aI14
aI14
asg25
g1
(g5
S'\x0e\x00\x00\x00\x00\x00\x00\x00'
p6394
tp6395
Rp6396
sg29
(lp6397
S'Berbatov, Dimitar'
p6398
assg1
(g5
S'\xfb\xbf\x06\x00\x00\x00\x00\x00'
p6399
tp6400
Rp6401
(dp6402
g12
(lp6403
S'Perez Cuesta, Miguel'
p6404
asg15
g6213
sg17
g1
(g5
S'\x01\x00\x00\x00\x00\x00\x00\x00'
p6405
tp6406
Rp6407
sg21
S'Swansea City'
p6408
sg23
(lp6409
I1
aI80
aI1
asg25
g1
(g5
S'P\x00\x00\x00\x00\x00\x00\x00'
p6410
tp6411
Rp6412
sg29
(lp6413
g160
aS'Ferdinand, Rio'
p6414
assg1
(g5
S'\xfc\xbf\x06\x00\x00\x00\x00\x00'
p6415
tp6416
Rp6417
(dp6418
g12
(lp6419
S'McAuley, Gareth'
p6420
asg15
S'Norwich City'
p6421
sg17
g1
(g5
S'-\x00\x00\x00\x00\x00\x00\x00'
p6422
tp6423
Rp6424
sg21
S'West Bromwich Albion'
p6425
sg23
(lp6426
I45
aI45
aI35
aI45
asg25
g1
(g5
S'#\x00\x00\x00\x00\x00\x00\x00'
p6427
tp6428
Rp6429
sg29
(lp6430
S'Snodgrass, Robert'
p6431
ag72
ag73
assg1
(g5
S'\xfd\xbf\x06\x00\x00\x00\x00\x00'
p6432
tp6433
Rp6434
(dp6435
g12
(lp6436
S'Ben Arfa, Hatem'
p6437
aS'Gouffran, Yoan'
p6438
asg15
S'Queens Park Rangers'
p6439
sg17
g1
(g5
S'4\x00\x00\x00\x00\x00\x00\x00'
p6440
tp6441
Rp6442
sg21
S'Newcastle United'
p6443
sg23
(lp6444
I52
aI4
aI4
asg25
g1
(g5
S'\x04\x00\x00\x00\x00\x00\x00\x00'
p6445
tp6446
Rp6447
sg29
(lp6448
S'Remy, Loic'
p6449
assg1
(g5
S'\xfe\xbf\x06\x00\x00\x00\x00\x00'
p6450
tp6451
Rp6452
(dp6453
g12
(lp6454
S'Aguero, Sergio'
p6455
aS'Dzeko, Edin'
p6456
asg15
S'Reading'
p6457
sg17
g1
(g5
S'l\x00\x00\x00\x00\x00\x00\x00'
p6458
tp6459
Rp6460
sg21
S'Manchester City'
p6461
sg23
(lp6462
I43
aI43
asg25
g1
(g5
S'+\x00\x00\x00\x00\x00\x00\x00'
p6463
tp6464
Rp6465
sg29
(lp6466
ssg1
(g5
S'\xff\xbf\x06\x00\x00\x00\x00\x00'
p6467
tp6468
Rp6469
(dp6470
g12
(lp6471
S'Dempsey, Clint'
p6472
aS'Adebayor, Emmanuel'
p6473
asg15
S'Stoke City'
p6474
sg17
g1
(g5
S'n\x00\x00\x00\x00\x00\x00\x00'
p6475
tp6476
Rp6477
sg21
S'Tottenham Hotspur'
p6478
sg23
(lp6479
I110
aI6
aI6
asg25
g1
(g5
S'\x06\x00\x00\x00\x00\x00\x00\x00'
p6480
tp6481
Rp6482
sg29
(lp6483
S"N'Zonzi, Steven"
p6484
ass.