(dp0
F2051.0
(dp1
S'playerName'
p2
S'Lampard, Frank'
p3
sS'playerPosition'
p4
S'Midfielder'
p5
sS'team_id'
p6
I8
sS'fail_goals'
p7
I0
sS'success_goals'
p8
I15
ssF10451.0
(dp9
g2
S'Jenas, Jermaine'
p10
sg4
S'Substitute'
p11
sg6
I52
sg7
I0
sg8
I2
ssF12297.0
(dp12
g2
S'van Persie, Robin'
p13
sg4
S'Striker'
p14
sg6
I1
sg7
I0
sg8
I26
ssF38411.0
(dp15
g2
S'Monreal, Nacho'
p16
sg4
S'Defender'
p17
sg6
I3
sg7
I0
sg8
I1
ssF43020.0
(dp18
g2
S'Hernandez, Javier'
p19
sg4
S'Striker'
p20
sg6
I1
sg7
I0
sg8
I10
ssF12813.0
(dp21
g2
S'Walters, Jonathan'
p22
sg4
g20
sg6
I110
sg7
I0
sg8
I10
ssF39439.0
(dp23
g2
S'Pogrebnyak, Pavel'
p24
sg4
g20
sg6
I108
sg7
I0
sg8
I5
ssF34392.0
(dp25
g2
S'Sessegnon, Stephane'
p26
sg4
g14
sg6
I56
sg7
I0
sg8
I7
ssF28690.0
(dp27
g2
S'Hernandez, Pablo'
p28
sg4
S'Midfielder'
p29
sg6
I80
sg7
I0
sg8
I3
ssF103955.0
(dp30
g2
S'Sterling, Raheem'
p31
sg4
g29
sg6
I14
sg7
I0
sg8
I2
ssF41493.0
(dp32
g2
S'Kamara, Kei'
p33
sg4
S'Substitute'
p34
sg6
I45
sg7
I0
sg8
I1
ssF42518.0
(dp35
g2
S'Kacaniklic, Alexander'
p36
sg4
g5
sg6
I54
sg7
I0
sg8
I4
ssF41135.0
(dp37
g2
S'Ivanovic, Branislav'
p38
sg4
S'Defender'
p39
sg6
I8
sg7
I0
sg8
I5
ssF77454.0
(dp40
g2
S'Borini, Fabio'
p41
sg4
S'Substitute'
p42
sg6
I14
sg7
I0
sg8
I1
ssF17476.0
(dp43
g2
S'Kompany, Vincent'
p44
sg4
g17
sg6
I43
sg7
I0
sg8
I2
ssF18981.0
(dp45
g2
S'Naismith, Steven'
p46
sg4
S'Striker'
p47
sg6
I11
sg7
I0
sg8
I4
ssF15398.0
(dp48
g2
S'Graham, Danny'
p49
sg4
g14
sg6
I80
sg7
I0
sg8
I3
ssF36903.0
(dp50
g2
S'Bale, Gareth'
p51
sg4
S'Midfielder'
p52
sg6
I6
sg7
I0
sg8
I22
ssF13866.0
(dp53
g2
S'Holman, Brett'
p54
sg4
S'Midfielder'
p55
sg6
I7
sg7
I0
sg8
I1
ssF18987.0
(dp56
g2
S'Snodgrass, Robert'
p57
sg4
g20
sg6
I45
sg7
I0
sg8
I6
ssF7631.0
(dp58
g2
S'Vaughan, David'
p59
sg4
S'Midfielder'
p60
sg6
I56
sg7
I0
sg8
I2
ssF42544.0
(dp61
g2
S'Dzeko, Edin'
p62
sg4
S'Substitute'
p63
sg6
I43
sg7
I0
sg8
I14
ssF54322.0
(dp64
g2
S'Perez Cuesta, Miguel'
p65
sg4
g5
sg6
I80
sg7
I0
sg8
I18
ssF37939.0
(dp66
g2
S'Marveaux, Sylvain'
p67
sg4
S'Midfielder'
p68
sg6
I4
sg7
I0
sg8
I1
ssF6240.0
(dp69
g2
S'Ameobi, Shola'
p70
sg4
S'Substitute'
p71
sg6
I4
sg7
I0
sg8
I1
ssF11829.0
(dp72
g2
S'Routledge, Wayne'
p73
sg4
g52
sg6
I80
sg7
I0
sg8
I5
ssF8758.0
(dp74
g2
S'Arteta, Mikel'
p75
sg4
S'Midfielder'
p76
sg6
I3
sg7
I0
sg8
I6
ssF18953.0
(dp77
g2
S'Fletcher, Steven'
p78
sg4
g14
sg6
I56
sg7
I0
sg8
I11
ssF50232.0
(dp79
g2
S'Shelvey, Jonjo'
p80
sg4
S'Striker'
p81
sg6
I14
sg7
I0
sg8
I1
ssF41823.0
(dp82
g2
S'Delph, Fabian'
p83
sg4
S'Midfielder'
p84
sg6
I7
sg7
I0
sg8
I1
ssF49724.0
(dp85
g2
S'Di Santo, Franco'
p86
sg4
g14
sg6
I111
sg7
I0
sg8
I5
ssF37642.0
(dp87
g2
S'Evans, Jonny'
p88
sg4
S'Defender'
p89
sg6
I1
sg7
I0
sg8
I5
ssF16045.0
(dp90
g2
S'Watson, Ben'
p91
sg4
S'Midfielder'
p92
sg6
I111
sg7
I0
sg8
I1
ssF14402.0
(dp93
g2
S'Torres, Fernando'
p94
sg4
g14
sg6
I8
sg7
I0
sg8
I8
ssF19524.0
(dp95
g2
S'Cazorla, Santiago'
p96
sg4
g52
sg6
I3
sg7
I0
sg8
I12
ssF125510.0
(dp97
g2
S'Henriquez, Angelo'
p98
sg4
S'Substitute'
p99
sg6
I111
sg7
I0
sg8
I1
ssF14919.0
(dp100
g2
S'Kilgallon, Matthew'
p101
sg4
S'Defender'
p102
sg6
I56
sg7
I0
sg8
I1
ssF15944.0
(dp103
g2
S'Kightly, Michael'
p104
sg4
g5
sg6
I110
sg7
I0
sg8
I3
ssF2060.0
(dp105
g2
S'Cole, Joe'
p106
sg4
S'Substitute'
p107
sg6
I14
sg7
I0
sg8
I3
ssF13898.0
(dp108
g2
S'Ferdinand, Anton'
p109
sg4
S'Defender'
p110
sg6
I52
sg7
I0
sg8
I1
ssF1640.0
(dp111
g2
S'Upson, Matthew'
p112
sg4
S'Defender'
p113
sg6
I110
sg7
I0
sg8
I1
ssF48717.0
(dp114
g2
S'Reid, Winston'
p115
sg4
S'Defender'
p116
sg6
I21
sg7
I0
sg8
I1
ssF19534.0
(dp117
g2
S'Garcia Fernandez, Francisco Javier'
p118
sg4
g52
sg6
I43
sg7
I0
sg8
I2
ssF42727.0
(dp119
g2
S'Gouffran, Yoan'
p120
sg4
S'Midfielder'
p121
sg6
I4
sg7
I0
sg8
I3
ssF80979.0
(dp122
g2
S'Weimann, Andreas'
p123
sg4
S'Striker'
p124
sg6
I7
sg7
I0
sg8
I7
ssF5716.0
(dp125
g2
S"O'Neil, Gary"
p126
sg4
g84
sg6
I21
sg7
I0
sg8
I1
ssF50105.0
(dp127
g2
S'Espinoza, Roger'
p128
sg4
S'Defender'
p129
sg6
I111
sg7
I0
sg8
I1
ssF18008.0
(dp130
g2
S'Morrison, James'
p131
sg4
g52
sg6
I35
sg7
I0
sg8
I5
ssF2404.0
(dp132
g2
S'Carrick, Michael'
p133
sg4
S'Midfielder'
p134
sg6
I1
sg7
I0
sg8
I1
ssF21083.0
(dp135
g2
S'Dyer, Nathan'
p136
sg4
g5
sg6
I80
sg7
I0
sg8
I3
ssF17500.0
(dp137
g2
S'Adebayor, Emmanuel'
p138
sg4
g124
sg6
I6
sg7
I0
sg8
I5
ssF8378.0
(dp139
g2
S'Osman, Leon'
p140
sg4
S'Midfielder'
p141
sg6
I11
sg7
I0
sg8
I5
ssF18277.0
(dp142
g2
S'Emanuelson, Urby'
p143
sg4
S'Substitute'
p144
sg6
I54
sg7
I0
sg8
I1
ssF15968.0
(dp145
g2
S'Baird, Christopher'
p146
sg4
S'Defender'
p147
sg6
I54
sg7
I0
sg8
I2
ssF42593.0
(dp148
g2
S'Kolarov, Aleksandar'
p149
sg4
g147
sg6
I43
sg7
I0
sg8
I1
ssF61538.0
(dp150
g2
S'McManaman, Callum'
p151
sg4
S'Striker'
p152
sg6
I111
sg7
I0
sg8
I2
ssF26725.0
(dp153
g2
S'Enrique Sanchez Diaz, Jose'
p154
sg4
g92
sg6
I14
sg7
I0
sg8
I2
ssF21094.0
(dp155
g2
S'Agger, Daniel'
p156
sg4
S'Defender'
p157
sg6
I14
sg7
I0
sg8
I3
ssF21095.0
(dp158
g2
S'Vlaar, Ron'
p159
sg4
S'Defender'
p160
sg6
I7
sg7
I0
sg8
I3
ssF15976.0
(dp161
g2
S'Hooiveld, Jos'
p162
sg4
g116
sg6
I20
sg7
I0
sg8
I3
ssF39529.0
(dp163
g2
S'Gorkss, Kaspars'
p164
sg4
S'Defender'
p165
sg6
I108
sg7
I0
sg8
I1
ssF84583.0
(dp166
g2
S'Coutinho, Philippe'
p167
sg4
g121
sg6
I14
sg7
I0
sg8
I3
ssF5741.0
(dp168
g2
S'Holt, Grant'
p169
sg4
S'Substitute'
p170
sg6
I45
sg7
I0
sg8
I8
ssF6254.0
(dp171
g2
S'Gallas, William'
p172
sg4
g165
sg6
I6
sg7
I0
sg8
I1
ssF3773.0
(dp173
g2
S'Crouch, Peter'
p174
sg4
g20
sg6
I110
sg7
I0
sg8
I7
ssF19569.0
(dp175
g2
S'Johnson, Bradley'
p176
sg4
g76
sg6
I45
sg7
I0
sg8
I1
ssF38419.0
(dp177
g2
S'Remy, Loic'
p178
sg4
S'Striker'
p179
sg6
I52
sg7
I0
sg8
I6
ssF14965.0
(dp180
g2
S'Vidic, Nemanja'
p181
sg4
g39
sg6
I1
sg7
I0
sg8
I2
ssF19575.0
(dp182
g2
S"O'Brien, Joey"
p183
sg4
g110
sg6
I21
sg7
I0
sg8
I3
ssF27258.0
(dp184
g2
S'Oliveira, Anderson'
p185
sg4
g55
sg6
I1
sg7
I0
sg8
I1
ssF74363.0
(dp186
g2
S'Shechter, Itay'
p187
sg4
S'Striker'
p188
sg6
I80
sg7
I0
sg8
I1
ssF12413.0
(dp189
g2
S'Huth, Robert'
p190
sg4
S'Defender'
p191
sg6
I110
sg7
I0
sg8
I1
ssF55422.0
(dp192
g2
S'Sigurdsson, Gylfi'
p193
sg4
S'Substitute'
p194
sg6
I6
sg7
I0
sg8
I3
ssF1216.0
(dp195
g2
S'Hill, Clint'
p196
sg4
g17
sg6
I52
sg7
I0
sg8
I1
ssF38530.0
(dp197
g2
S'Almeida da Cunha, Luis'
p198
sg4
g141
sg6
I1
sg7
I0
sg8
I1
ssF1131.0
(dp199
g2
S'Bramble, Titus'
p200
sg4
g102
sg6
I56
sg7
I0
sg8
I1
ssF1814.0
(dp201
g2
S'Gerrard, Steven'
p202
sg4
g141
sg6
I14
sg7
I0
sg8
I10
ssF11911.0
(dp203
g2
S'Caldwell, Gary'
p204
sg4
g160
sg6
I111
sg7
I0
sg8
I2
ssF44683.0
(dp205
g2
S'Rodriguez, Jay'
p206
sg4
g47
sg6
I20
sg7
I0
sg8
I6
ssF52876.0
(dp207
g2
S'Guimaraes Cordeiro, Sandro Ranieri'
p208
sg4
g55
sg6
I6
sg7
I0
sg8
I1
ssF6286.0
(dp209
g2
S'Cisse, Djibril'
p210
sg4
g47
sg6
I52
sg7
I0
sg8
I3
ssF53392.0
(dp211
g2
S'Santos do Nascimento, Ramires'
p212
sg4
g76
sg6
I8
sg7
I0
sg8
I5
ssF17906.0
(dp213
g2
S'Ramis, Ivan'
p214
sg4
g165
sg6
I111
sg7
I0
sg8
I2
ssF83090.0
(dp215
g2
S'Kagawa, Shinji'
p216
sg4
g5
sg6
I1
sg7
I0
sg8
I6
ssF67731.0
(dp217
g2
S'Faurlin, Alejandro'
p218
sg4
g141
sg6
I52
sg7
I0
sg8
I1
ssF39895.0
(dp219
g2
S'Mulumbu, Youssuf'
p220
sg4
g29
sg6
I35
sg7
I0
sg8
I2
ssF43670.0
(dp221
g2
S'Mata, Juan'
p222
sg4
S'Striker'
p223
sg6
I8
sg7
I0
sg8
I12
ssF3736.0
(dp224
g2
S"O'Shea, John"
p225
sg4
g113
sg6
I56
sg7
I0
sg8
I2
ssF18073.0
(dp226
g2
S'Noble, Mark'
p227
sg4
g76
sg6
I21
sg7
I0
sg8
I4
ssF19151.0
(dp228
g2
S'Brunt, Chris'
p229
sg4
g68
sg6
I35
sg7
I0
sg8
I2
ssF4255.0
(dp230
g2
S'Bothroyd, Jay'
p231
sg4
S'Striker'
p232
sg6
I52
sg7
I0
sg8
I1
ssF38297.0
(dp233
g2
S'Howson, Jonathan'
p234
sg4
S'Midfielder'
p235
sg6
I45
sg7
I0
sg8
I2
ssF2034.0
(dp236
g2
S'Ferdinand, Rio'
p237
sg4
S'Defender'
p238
sg6
I1
sg7
I0
sg8
I1
ssF15729.0
(dp239
g2
S'Hunt, Noel'
p240
sg4
S'Striker'
p241
sg6
I108
sg7
I0
sg8
I2
ssF26793.0
(dp242
g2
S'Skrtel, Martin'
p243
sg4
g39
sg6
I14
sg7
I0
sg8
I2
ssF19714.0
(dp244
g2
S'Wilkinson, Andy'
p245
sg4
g113
sg6
I110
sg7
I0
sg8
I1
ssF49323.0
(dp246
g2
S"N'Zonzi, Steven"
p247
sg4
g235
sg6
I110
sg7
I0
sg8
I1
ssF3296.0
(dp248
g2
S'Boyce, Emmerson'
p249
sg4
g147
sg6
I111
sg7
I0
sg8
I5
ssF11037.0
(dp250
g2
S'Lambert, Rickie'
p251
sg4
g63
sg6
I20
sg7
I0
sg8
I15
ssF20145.0
(dp252
g2
S'Mariappa, Adrian'
p253
sg4
g191
sg6
I108
sg7
I0
sg8
I1
ssF20658.0
(dp254
g2
S'Zabaleta, Pablo'
p255
sg4
S'Defender'
p256
sg6
I43
sg7
I0
sg8
I2
ssF38580.0
(dp257
g2
S'Fonte, Jose'
p258
sg4
g147
sg6
I20
sg7
I0
sg8
I2
ssF1718.0
(dp259
g2
S'Terry, John'
p260
sg4
g160
sg6
I8
sg7
I0
sg8
I4
ssF17353.0
(dp261
g2
S'Vaz Te, Ricardo'
p262
sg4
g223
sg6
I21
sg7
I0
sg8
I3
ssF20664.0
(dp263
g2
S'Silva, David'
p264
sg4
g92
sg6
I43
sg7
I0
sg8
I4
ssF5306.0
(dp265
g2
S'Nolan, Kevin'
p266
sg4
g5
sg6
I21
sg7
I0
sg8
I10
ssF1212.0
(dp267
g2
S'Wright-Phillips, Shaun'
p268
sg4
S'Substitute'
p269
sg6
I52
sg7
I0
sg8
I1
ssF66749.0
(dp270
g2
S'Lukaku, Romelu'
p271
sg4
g63
sg6
I35
sg7
I0
sg8
I17
ssF49806.0
(dp272
g2
S'Hoilett, Junior'
p273
sg4
S'Midfielder'
p274
sg6
I52
sg7
I0
sg8
I1
ssF39104.0
(dp275
g2
S'Dembele, Mousa'
p276
sg4
S'Substitute'
p277
sg6
I6
sg7
I0
sg8
I1
ssF20141.0
(dp278
g2
S'Dorrans, Graham'
p279
sg4
g84
sg6
I35
sg7
I0
sg8
I1
ssF49414.0
(dp280
g2
S'Collison, Jack'
p281
sg4
g68
sg6
I21
sg7
I0
sg8
I2
ssF37572.0
(dp282
g2
S'Aguero, Sergio'
p283
sg4
g223
sg6
I43
sg7
I0
sg8
I12
ssF39253.0
(dp284
g2
S'Olsson, Jonas'
p285
sg4
g238
sg6
I35
sg7
I0
sg8
I1
ssF3785.0
(dp286
g2
S'Cole, Ashley'
p287
sg4
g89
sg6
I8
sg7
I0
sg8
I1
ssF10954.0
(dp288
g2
S'Bunn, Mark'
p289
sg4
S'Goalkeeper'
p290
sg6
I45
sg7
I0
sg8
I1
ssF11467.0
(dp291
g2
S'Jones, Billy'
p292
sg4
g129
sg6
I35
sg7
I0
sg8
I1
ssF27341.0
(dp293
g2
S'Cabaye, Yohan'
p294
sg4
g29
sg6
I4
sg7
I0
sg8
I6
ssF40142.0
(dp295
g2
S'Carroll, Andy'
p296
sg4
S'Striker'
p297
sg6
I21
sg7
I0
sg8
I7
ssF68815.0
(dp298
g2
S'Caulker, Steven'
p299
sg4
g147
sg6
I6
sg7
I0
sg8
I2
ssF19272.0
(dp300
g2
S'McAuley, Gareth'
p301
sg4
g116
sg6
I35
sg7
I0
sg8
I5
ssF48886.0
(dp302
g2
S'Karacan, Jem'
p303
sg4
S'Midfielder'
p304
sg6
I108
sg7
I0
sg8
I1
ssF11987.0
(dp305
g2
S'Petric, Mladen'
p306
sg4
g14
sg6
I54
sg7
I0
sg8
I5
ssF45268.0
(dp307
g2
S'Sissoko, Moussa'
p308
sg4
S'Midfielder'
p309
sg6
I4
sg7
I0
sg8
I3
ssF20695.0
(dp310
g2
S'Valencia, Luis Antonio'
p311
sg4
S'Midfielder'
p312
sg6
I1
sg7
I0
sg8
I1
ssF3289.0
(dp313
g2
S'Taylor, Matthew'
p314
sg4
g52
sg6
I21
sg7
I0
sg8
I1
ssF19163.0
(dp315
g2
S'Le Fondre, Adam'
p316
sg4
g14
sg6
I108
sg7
I0
sg8
I12
ssF37084.0
(dp317
g2
S'Ruiz, Bryan'
p318
sg4
S'Substitute'
p319
sg6
I54
sg7
I0
sg8
I5
ssF41184.0
(dp320
g2
S'Fellaini, Marouane'
p321
sg4
g5
sg6
I11
sg7
I0
sg8
I11
ssF15073.0
(dp322
g2
S'Richardson, Kieran'
p323
sg4
S'Substitute'
p324
sg6
I54
sg7
I0
sg8
I1
ssF12002.0
(dp325
g2
S'Downing, Stewart'
p326
sg4
S'Midfielder'
p327
sg6
I14
sg7
I0
sg8
I3
ssF17127.0
(dp328
g2
S'Mertesacker, Per'
p329
sg4
g160
sg6
I3
sg7
I0
sg8
I3
ssF1256.0
(dp330
g2
S'Duff, Damien'
p331
sg4
g5
sg6
I54
sg7
I0
sg8
I3
ssF18215.0
(dp332
g2
S'Jones, Kenwyne'
p333
sg4
g81
sg6
I110
sg7
I0
sg8
I3
ssF20208.0
(dp334
g2
S'Adam, Charlie'
p335
sg4
g92
sg6
I110
sg7
I0
sg8
I3
ssF43250.0
(dp336
g2
S'Cleverley, Tom'
p337
sg4
g29
sg6
I1
sg7
I0
sg8
I2
ssF39155.0
(dp338
g2
S'Lallana, Adam'
p339
sg4
g76
sg6
I20
sg7
I0
sg8
I3
ssF14295.0
(dp340
g2
S'Fletcher, Darren'
p341
sg4
g274
sg6
I1
sg7
I0
sg8
I1
ssF42744.0
(dp342
g2
S'Bassong, Sebastien'
p343
sg4
g110
sg6
I45
sg7
I0
sg8
I3
ssF40755.0
(dp344
g2
S'Sturridge, Daniel'
p345
sg4
g319
sg6
I8
sg7
I0
sg8
I11
ssF14075.0
(dp346
g2
S'Evra, Patrice'
p347
sg4
g147
sg6
I1
sg7
I0
sg8
I4
ssF19196.0
(dp348
g2
S'Mackie, Jamie'
p349
sg4
g274
sg6
I52
sg7
I0
sg8
I2
ssF19197.0
(dp350
g2
S'Puncheon, Jason'
p351
sg4
g141
sg6
I20
sg7
I0
sg8
I6
ssF41727.0
(dp352
g2
S'Bennett, Ryan'
p353
sg4
S'Defender'
p354
sg6
I45
sg7
I0
sg8
I2
ssF20226.0
(dp355
g2
S'Dempsey, Clint'
p356
sg4
g223
sg6
I6
sg7
I0
sg8
I7
ssF1795.0
(dp357
g2
S'Owen, Michael'
p358
sg4
g99
sg6
I110
sg7
I0
sg8
I1
ssF49413.0
(dp359
g2
S'Tomkins, James'
p360
sg4
g165
sg6
I21
sg7
I0
sg8
I1
ssF42758.0
(dp361
g2
S'Cisse, Papiss Demba'
p362
sg4
g319
sg6
I4
sg7
I0
sg8
I8
ssF37639.0
(dp363
g2
S'Guthrie, Danny'
p364
sg4
g52
sg6
I108
sg7
I0
sg8
I1
ssF17160.0
(dp365
g2
S'Riether, Sascha'
p366
sg4
S'Defender'
p367
sg6
I54
sg7
I0
sg8
I1
ssF43274.0
(dp368
g2
S'Yao Kouassi, Gervais'
p369
sg4
g20
sg6
I3
sg7
I0
sg8
I5
ssF78091.0
(dp370
g2
S'Ramirez, Gaston'
p371
sg4
g141
sg6
I20
sg7
I0
sg8
I5
ssF40204.0
(dp372
g2
S'Morison, Steve'
p373
sg4
g223
sg6
I45
sg7
I0
sg8
I1
ssF17997.0
(dp374
g2
S'Bardsley, Phil'
p375
sg4
g238
sg6
I56
sg7
I0
sg8
I1
ssF81880.0
(dp376
g2
S'Oxlade-Chamberlain, Alex'
p377
sg4
g68
sg6
I3
sg7
I0
sg8
I1
ssF26900.0
(dp378
g2
S'Odemwingie, Peter'
p379
sg4
g14
sg6
I35
sg7
I0
sg8
I5
ssF26901.0
(dp380
g2
S'Mirallas, Kevin'
p381
sg4
g223
sg6
I11
sg7
I0
sg8
I6
ssF7958.0
(dp382
g2
S'Defoe, Jermain'
p383
sg4
g14
sg6
I6
sg7
I0
sg8
I11
ssF13017.0
(dp384
g2
S'Rooney, Wayne'
p385
sg4
g241
sg6
I1
sg7
I0
sg8
I13
ssF87112.0
(dp386
g2
S'Bigirimana, Gael'
p387
sg4
S'Substitute'
p388
sg6
I4
sg7
I0
sg8
I1
ssF39194.0
(dp389
g2
S'Vertonghen, Jan'
p390
sg4
g256
sg6
I6
sg7
I0
sg8
I4
ssF33298.0
(dp391
g2
S'Beausejour, Jean'
p392
sg4
g312
sg6
I111
sg7
I0
sg8
I1
ssF82205.0
(dp393
g2
S'Powell, Nick'
p394
sg4
g277
sg6
I1
sg7
I0
sg8
I1
ssF49440.0
(dp395
g2
S'Robson-Kanu, Hal'
p396
sg4
g277
sg6
I108
sg7
I0
sg8
I7
ssF42786.0
(dp397
g2
S'Hazard, Eden'
p398
sg4
g14
sg6
I8
sg7
I0
sg8
I9
ssF1243.0
(dp399
g2
S'Green, Robert'
p400
sg4
S'Goalkeeper'
p401
sg6
I52
sg7
I0
sg8
I1
ssF39204.0
(dp402
g2
S'De Guzman, Jonathan'
p403
sg4
g92
sg6
I80
sg7
I0
sg8
I6
ssF50471.0
(dp404
g2
S'McArthur, James'
p405
sg4
g76
sg6
I111
sg7
I0
sg8
I3
ssF50472.0
(dp406
g2
S'McCarthy, James'
p407
sg4
g327
sg6
I111
sg7
I0
sg8
I3
ssF26921.0
(dp408
g2
S'Kone, Arouna'
p409
sg4
g14
sg6
I111
sg7
I0
sg8
I11
ssF60551.0
(dp410
g2
S'Westwood, Ashley'
p411
sg4
g121
sg6
I7
sg7
I0
sg8
I1
ssF41262.0
(dp412
g2
S'Bennett, Elliott'
p413
sg4
g134
sg6
I45
sg7
I0
sg8
I1
ssF7645.0
(dp414
g2
S'Jagielka, Phil'
p415
sg4
S'Defender'
p416
sg6
I11
sg7
I0
sg8
I2
ssF18737.0
(dp417
g2
S"N'Zogbia, Charles"
p418
sg4
g121
sg6
I7
sg7
I0
sg8
I2
ssF51507.0
(dp419
g2
S'Koscielny, Laurent'
p420
sg4
g89
sg6
I3
sg7
I0
sg8
I2
ssF47412.0
(dp421
g2
S'Ba, Demba'
p422
sg4
g14
sg6
I4
sg7
I0
sg8
I16
ssF15157.0
(dp423
g2
S'Milner, James'
p424
sg4
g29
sg6
I43
sg7
I0
sg8
I4
ssF41270.0
(dp425
g2
S'Luiz Moreira Marinho, David'
p426
sg4
g165
sg6
I8
sg7
I0
sg8
I3
ssF28468.0
(dp427
g2
S'Gardner, Craig'
p428
sg4
S'Substitute'
p429
sg6
I56
sg7
I0
sg8
I6
ssF44346.0
(dp430
g2
S'Giroud, Olivier'
p431
sg4
g241
sg6
I3
sg7
I0
sg8
I11
ssF63370.0
(dp432
g2
S'McClean, James'
p433
sg4
g5
sg6
I56
sg7
I0
sg8
I2
ssF49982.0
(dp434
g2
S'Morrison, Sean'
p435
sg4
g110
sg6
I108
sg7
I0
sg8
I2
ssF39221.0
(dp436
g2
S'Tiendalli, Dwight'
p437
sg4
g129
sg6
I80
sg7
I0
sg8
I1
ssF41792.0
(dp438
g2
S'Ramsey, Aaron'
p439
sg4
g304
sg6
I3
sg7
I0
sg8
I1
ssF18753.0
(dp440
g2
S'Ben Arfa, Hatem'
p441
sg4
g5
sg6
I4
sg7
I0
sg8
I4
ssF17733.0
(dp442
g2
S'Podolski, Lukas'
p443
sg4
g20
sg6
I3
sg7
I0
sg8
I11
ssF14664.0
(dp444
g2
S'Toure, Gnegneri Yaya'
p445
sg4
g5
sg6
I43
sg7
I0
sg8
I7
ssF39242.0
(dp446
g2
S'El Ahmadi, Karim'
p447
sg4
g5
sg6
I7
sg7
I0
sg8
I1
ssF28491.0
(dp448
g2
S'Al-Habsi, Ali'
p449
sg4
S'Goalkeeper'
p450
sg6
I111
sg7
I0
sg8
I1
ssF61262.0
(dp451
g2
S'dos Santos Emboada Junior, Oscar'
p452
sg4
g107
sg6
I8
sg7
I0
sg8
I4
ssF40451.0
(dp453
g2
S'Pilkington, Anthony'
p454
sg4
g274
sg6
I45
sg7
I0
sg8
I5
ssF6994.0
(dp455
g2
S'Karagounis, Giorgos'
p456
sg4
g60
sg6
I54
sg7
I0
sg8
I1
ssF28499.0
(dp457
g2
S'Hoolahan, Wes'
p458
sg4
g81
sg6
I45
sg7
I0
sg8
I3
ssF50004.0
(dp459
g2
S'Buttner, Alexander'
p460
sg4
g116
sg6
I1
sg7
I0
sg8
I2
ssF39765.0
(dp461
g2
S'Taarabt, Adel'
p462
sg4
g170
sg6
I52
sg7
I0
sg8
I5
ssF9047.0
(dp463
g2
S'Johnson, Glen'
p464
sg4
g256
sg6
I14
sg7
I0
sg8
I1
ssF20312.0
(dp465
g2
S'Tevez, Carlos'
p466
sg4
g14
sg6
I43
sg7
I0
sg8
I11
ssF60252.0
(dp467
g2
S'Townsend, Andros'
p468
sg4
g312
sg6
I52
sg7
I0
sg8
I2
ssF27450.0
(dp469
g2
S'Agbonlahor, Gabriel'
p470
sg4
g47
sg6
I7
sg7
I0
sg8
I9
ssF1632.0
(dp471
g2
S'Barry, Gareth'
p472
sg4
g68
sg6
I43
sg7
I0
sg8
I2
ssF15201.0
(dp473
g2
S'Barnett, Leon'
p474
sg4
g89
sg6
I45
sg7
I0
sg8
I1
ssF27707.0
(dp475
g2
S'Gibson, Darron'
p476
sg4
g84
sg6
I11
sg7
I0
sg8
I1
ssF115556.0
(dp477
g2
S'Davies, Ben'
p478
sg4
g354
sg6
I80
sg7
I0
sg8
I1
ssF7525.0
(dp479
g2
S'Pienaar, Steven'
p480
sg4
g5
sg6
I11
sg7
I0
sg8
I6
ssF50023.0
(dp481
g2
S'Gomez Garcia-Penche, Jordi'
p482
sg4
g297
sg6
I111
sg7
I0
sg8
I3
ssF17468.0
(dp483
g2
S'Cuellar, Carlos'
p484
sg4
g160
sg6
I56
sg7
I0
sg8
I2
ssF363.0
(dp485
g2
S'Scholes, Paul'
p486
sg4
g52
sg6
I1
sg7
I0
sg8
I1
ssF13164.0
(dp487
g2
S'Whittaker, Steven'
p488
sg4
g256
sg6
I45
sg7
I0
sg8
I1
ssF41328.0
(dp489
g2
S'Azpilicueta, Cesar'
p490
sg4
g102
sg6
I8
sg7
I0
sg8
I1
ssF19688.0
(dp491
g2
S'Sinclair, Scott'
p492
sg4
g63
sg6
I80
sg7
I0
sg8
I1
ssF56979.0
(dp493
g2
S'Henderson, Jordan'
p494
sg4
g60
sg6
I14
sg7
I0
sg8
I5
ssF18804.0
(dp495
g2
S'Jerome, Cameron'
p496
sg4
g429
sg6
I110
sg7
I0
sg8
I3
ssF49013.0
(dp497
g2
S'Moses, Victor'
p498
sg4
g124
sg6
I8
sg7
I0
sg8
I1
ssF68983.0
(dp499
g2
S'Lowton, Matthew'
p500
sg4
g116
sg6
I7
sg7
I0
sg8
I2
ssF19321.0
(dp501
g2
S'Jackson, Simeon'
p502
sg4
g14
sg6
I45
sg7
I0
sg8
I1
ssF28541.0
(dp503
g2
S'Campbell, Fraizer'
p504
sg4
g107
sg6
I56
sg7
I0
sg8
I1
ssF7551.0
(dp505
g2
S'Lescott, Joleon'
p506
sg4
g89
sg6
I43
sg7
I0
sg8
I1
ssF18818.0
(dp507
g2
S'Jarvis, Matthew'
p508
sg4
g141
sg6
I21
sg7
I0
sg8
I2
ssF49949.0
(dp509
g2
S'McCleary, Garath'
p510
sg4
g319
sg6
I108
sg7
I0
sg8
I3
ssF46998.0
(dp511
g2
S'Granero, Esteban'
p512
sg4
g29
sg6
I52
sg7
I0
sg8
I1
ssF12679.0
(dp513
g2
S'Dawson, Michael'
p514
sg4
g113
sg6
I6
sg7
I0
sg8
I1
ssF28554.0
(dp515
g2
S'Nasri, Samir'
p516
sg4
g5
sg6
I43
sg7
I0
sg8
I2
ssF17291.0
(dp517
g2
S'Do Prado, Guilherme'
p518
sg4
S'Midfielder'
p519
sg6
I20
sg7
I0
sg8
I1
ssF19341.0
(dp520
g2
S'Martin, Russell'
p521
sg4
g113
sg6
I45
sg7
I0
sg8
I3
ssF34285.0
(dp522
g2
S'Figueroa, Maynor'
p523
sg4
g367
sg6
I111
sg7
I0
sg8
I1
ssF20368.0
(dp524
g2
S'Sahin, Nuri'
p525
sg4
g141
sg6
I14
sg7
I0
sg8
I1
ssF38290.0
(dp526
g2
S'Rose, Danny'
p527
sg4
g129
sg6
I56
sg7
I0
sg8
I1
ssF8595.0
(dp528
g2
S'Berbatov, Dimitar'
p529
sg4
g20
sg6
I54
sg7
I0
sg8
I15
ssF8597.0
(dp530
g2
S'Rosicky, Tomas'
p531
sg4
g84
sg6
I3
sg7
I0
sg8
I2
ssF9110.0
(dp532
g2
S'Maloney, Shaun'
p533
sg4
g52
sg6
I111
sg7
I0
sg8
I6
ssF19057.0
(dp534
g2
S'Larsson, Sebastian'
p535
sg4
g60
sg6
I56
sg7
I0
sg8
I1
ssF21060.0
(dp536
g2
S'Gutierrez, Jonas'
p537
sg4
g309
sg6
I4
sg7
I0
sg8
I1
ssF18846.0
(dp538
g2
S'Perch, James'
p539
sg4
g68
sg6
I4
sg7
I0
sg8
I1
ssF55604.0
(dp540
g2
S'Santon, Davide'
p541
sg4
g17
sg6
I4
sg7
I0
sg8
I1
ssF39336.0
(dp542
g2
S'Suarez, Luis'
p543
sg4
g14
sg6
I14
sg7
I0
sg8
I23
ssF28146.0
(dp544
g2
S'Assou-Ekotto, Benoit'
p545
sg4
g116
sg6
I6
sg7
I0
sg8
I1
ssF28593.0
(dp546
g2
S'Anichebe, Victor'
p547
sg4
g277
sg6
I11
sg7
I0
sg8
I6
ssF28147.0
(dp548
g2
S'Diame, Mohamed'
p549
sg4
g29
sg6
I21
sg7
I0
sg8
I3
ssF54772.0
(dp550
g2
S'da Silva, Rafael Pereira'
p551
sg4
g39
sg6
I1
sg7
I0
sg8
I3
ssF17339.0
(dp552
g2
S'Davis, Steven'
p553
sg4
g63
sg6
I20
sg7
I0
sg8
I2
ssF19718.0
(dp554
g2
S'Nelsen, Ryan'
p555
sg4
g256
sg6
I52
sg7
I0
sg8
I1
ssF17349.0
(dp556
g2
S'Lennon, Aaron'
p557
sg4
g29
sg6
I6
sg7
I0
sg8
I4
ssF14279.0
(dp558
g2
S'Fortune, Marc-Antoine'
p559
sg4
g429
sg6
I35
sg7
I0
sg8
I2
ssF12745.0
(dp560
g2
S'Baines, Leighton'
p561
sg4
g116
sg6
I11
sg7
I0
sg8
I7
ssF42954.0
(dp562
g2
S'Maiga, Modibo'
p563
sg4
g319
sg6
I21
sg7
I0
sg8
I2
ssF11212.0
(dp564
g2
S'Leigertwood, Mikele'
p565
sg4
g76
sg6
I108
sg7
I0
sg8
I1
ssF54861.0
(dp566
g2
S'Benteke, Christian'
p567
sg4
g277
sg6
I7
sg7
I0
sg8
I19
ssF42774.0
(dp568
g2
S'Schneiderlin, Morgan'
p569
sg4
g52
sg6
I20
sg7
I0
sg8
I5
ssF62419.0
(dp570
g2
S'Jelavic, Nikica'
p571
sg4
g14
sg6
I11
sg7
I0
sg8
I7
ssF5589.0
(dp572
g2
S'Whitehead, Dean'
p573
sg4
g388
sg6
I110
sg7
I0
sg8
I1
ssF37334.0
(dp574
g2
S'Rodallega, Hugo'
p575
sg4
g223
sg6
I54
sg7
I0
sg8
I3
ssF11735.0
(dp576
g2
S'Sidwell, Steve'
p577
sg4
g63
sg6
I54
sg7
I0
sg8
I4
ssF19928.0
(dp578
g2
S'Cesar, Julio'
p579
sg4
S'Goalkeeper'
p580
sg6
I52
sg7
I0
sg8
I1
ssF4570.0
(dp581
g2
S'Zamora, Bobby'
p582
sg4
g14
sg6
I52
sg7
I0
sg8
I4
ssF19419.0
(dp583
g2
S'Cahill, Gary'
p584
sg4
g116
sg6
I8
sg7
I0
sg8
I2
ssF58845.0
(dp585
g2
S'Clark, Ciaran'
p586
sg4
g116
sg6
I7
sg7
I0
sg8
I1
ssF15428.0
(dp587
g2
S'Moore, Luke'
p588
sg4
g194
sg6
I80
sg7
I0
sg8
I3
ssF3.0
(dp589
g2
S'Giggs, Ryan'
p590
sg4
g121
sg6
I1
sg7
I0
sg8
I2
ssF20452.0
(dp591
g2
S'Long, Shane'
p592
sg4
g20
sg6
I35
sg7
I0
sg8
I8
ssF41450.0
(dp593
g2
S'Marin, Marko'
p594
sg4
g34
sg6
I8
sg7
I0
sg8
I1
ssF49384.0
(dp595
g2
S'Rodwell, Jack'
p596
sg4
g235
sg6
I43
sg7
I0
sg8
I2
ssF37869.0
(dp597
g2
S'Shawcross, Ryan'
p598
sg4
g256
sg6
I110
sg7
I0
sg8
I2
ssF52477.0
(dp599
g2
S'Baker, Nathan'
p600
sg4
g17
sg6
I7
sg7
I0
sg8
I2
ssF57328.0
(dp601
g2
S'Clyne, Nathaniel'
p602
sg4
g116
sg6
I20
sg7
I0
sg8
I2
ssF28145.0
(dp603
g2
S'Kebe, Jimmy'
p604
sg4
g29
sg6
I108
sg7
I0
sg8
I5
ssF10738.0
(dp605
g2
S'Bent, Darren'
p606
sg4
g223
sg6
I7
sg7
I0
sg8
I3
ssF20467.0
(dp607
g2
S'Walcott, Theo'
p608
sg4
g277
sg6
I3
sg7
I0
sg8
I14
ssF42996.0
(dp609
g2
S'Rangel, Angel'
p610
sg4
g39
sg6
I80
sg7
I0
sg8
I3
ssF18421.0
(dp611
g2
S'Fox, Daniel'
p612
sg4
g116
sg6
I20
sg7
I0
sg8
I1
ssF19959.0
(dp613
g2
S'Johnson, Adam'
p614
sg4
g92
sg6
I56
sg7
I0
sg8
I5
ssF15864.0
(dp615
g2
S'Turner, Michael'
p616
sg4
g165
sg6
I45
sg7
I0
sg8
I3
ssF12799.0
(dp617
g2
S'Cole, Carlton'
p618
sg4
S'Striker'
p619
sg6
I21
sg7
I0
sg8
I2
ssF42493.0
(dp620
g2
S'Balotelli, Mario'
p621
sg4
g619
sg6
I43
sg7
I0
sg8
I1
ssF18430.0
(dp622
g2
S'Gera, Zoltan'
p623
sg4
g5
sg6
I35
sg7
I0
sg8
I4
ssF50175.0
(dp624
g2
S'Welbeck, Danny'
p625
sg4
g241
sg6
I1
sg7
I0
sg8
I1
ss.